ccopy_reg
_reconstructor
p0
(csklearn.feature_extraction.dict_vectorizer
DictVectorizer
p1
c__builtin__
object
p2
Ntp3
Rp4
(dp5
S'vocabulary_'
p6
(dp7
Vfirst_noun=irate
p8
I771
sVfirst_noun=amateur
p9
I42
sVfirst_noun=archenemy
p10
I65
sVfirst_noun=caffeine
p11
I205
sVfirst_noun=quiz
p12
I1178
sVfirst_noun=quit
p13
I1177
sVfirst_noun=marriage
p14
I872
sVfirst_noun=fan-fiction
p15
I539
sVfirst_noun=fall
p16
I536
sVfirst_noun=martinis
p17
I874
sVfirst_noun=delegation
p18
I415
sVfirst_noun=husband-and-wife
p19
I729
sVfirst_noun=five-team
p20
I571
sVfirst_noun=pointsettia
p21
I1093
sVfirst_noun=shape
p22
I1302
sVfirst_noun=conference
p23
I328
sVfirst_noun=domestica
p24
I463
sVfirst_noun=suburb
p25
I1418
sVfirst_word_token=whom
p26
I1834
sVfirst_noun=province
p27
I1155
sVfirst_noun=stethoscope
p28
I1394
sVfirst_noun=terror
p29
I1489
sVfirst_question_noun=support
p30
I1754
sVfirst_noun=synonym
p31
I1452
sVfirst_noun=pink
p32
I1072
sVfirst_noun=meerkat
p33
I891
sVfirst_noun=evidence
p34
I519
sVfirst_noun=nominee
p35
I973
sVfirst_noun=society
p36
I1343
sVfirst_noun=zoo
p37
I1665
sVfirst_noun=lunch
p38
I851
sVfirst_noun=biography
p39
I128
sVfirst_noun=tennis
p40
I1483
sVfirst_noun=accessory
p41
I6
sVfirst_noun=present
p42
I1123
sVfirst_noun=size
p43
I1325
sVfirst_noun=value
p44
I1569
sVfirst_noun=vessel
p45
I1575
sVfirst_noun=history
p46
I699
sVfirst_noun=platinum
p47
I1083
sVfirst_noun=issue
p48
I774
sVfirst_noun=company
p49
I315
sVfirst_question_noun=treehouse
p50
I1760
sVfirst_noun=file
p51
I561
sVfirst_noun=listing
p52
I830
sVfirst_noun=film
p53
I563
sVfirst_noun=wolverine
p54
I1638
sVfirst_noun=trophy
p55
I1545
sVfirst_question_noun=stand
p56
I1751
sVfirst_noun=sat
p57
I1264
sVfirst_noun=poisoning
p58
I1094
sVfirst_noun=publisher
p59
I1160
sVfirst_noun=town
p60
I1522
sVfirst_noun=chromosome
p61
I261
sVfirst_noun=fraction
p62
I605
sVfirst_noun=passenger
p63
I1035
sVfirst_word_token=define
p64
I1786
sVfirst_noun=viscosity
p65
I1588
sVfirst_noun=policeman
p66
I1096
sVfirst_noun=disk
p67
I449
sVfirst_noun=saying
p68
I1265
sVfirst_noun=ripe
p69
I1243
sVfirst_noun=grandfather
p70
I651
sVfirst_noun=dam
p71
I392
sVfirst_noun=field
p72
I559
sVfirst_noun=trader
p73
I1526
sVfirst_noun=ton
p74
I1511
sVfirst_noun=toy
p75
I1523
sVfirst_noun=winner
p76
I1635
sVfirst_noun=failure
p77
I534
sVfirst_noun=surname
p78
I1437
sVfirst_noun=document
p79
I457
sVfirst_noun=hole
p80
I702
sVfirst_noun=friend
p81
I609
sVfirst_question_noun=mean
p82
I1713
sVfirst_noun=manufacturer
p83
I868
sVfirst_noun=cullion
p84
I383
sVfirst_question_noun=instrument
p85
I1707
sVfirst_noun=lawnmower
p86
I809
sVfirst_noun=eighth
p87
I488
sVfirst_noun=invent
p88
I767
sVfirst_noun=election
p89
I489
sVfirst_noun=tune
p90
I1549
sVfirst_noun=series
p91
I1296
sVfirst_noun=intercourse
p92
I763
sVfirst_noun=caldera
p93
I209
sVfirst_noun=ridge
p94
I1239
sVfirst_noun=leader
p95
I813
sVfirst_noun=sandwich
p96
I1261
sVfirst_noun=energy
p97
I504
sVfirst_noun=pearl
p98
I1040
sVfirst_noun=handwriting
p99
I673
sVfirst_noun=staff
p100
I1383
sVfirst_noun=guitarist
p101
I659
sVfirst_noun=night
p102
I970
sVfirst_noun=lose
p103
I846
sVfirst_word_token=is
p104
I1804
sVfirst_noun=duck
p105
I477
sVfirst_noun=division
p106
I455
sVfirst_noun=roulette
p107
I1250
sVfirst_noun=college
p108
I296
sVfirst_word_token=rotary
p109
I1819
sVfirst_question_noun=ham
p110
I1702
sVfirst_word_token=in
p111
I1802
sVfirst_noun=cache
p112
I204
sVfirst_noun=look
p113
I844
sVfirst_word_token=jude
p114
I1807
sVfirst_noun=window
p115
I1631
sVfirst_noun=nature
p116
I957
sVfirst_noun=clothing
p117
I283
sVfirst_noun=liner
p118
I828
sVfirst_noun=chiropodist
p119
I258
sVfirst_noun=die
p120
I434
sVfirst_noun=did
p121
I432
sVfirst_noun=slide
p122
I1331
sVfirst_noun=majority
p123
I860
sVfirst_noun=age
p124
I25
sVfirst_word_token=president
p125
I1817
sVfirst_question_token=how
p126
I1768
sVfirst_word_token=to
p127
I1827
sVfirst_noun=target
p128
I1463
sVfirst_noun=commercial
p129
I308
sVfirst_noun=realm
p130
I1200
sVfirst_noun=businessman
p131
I199
sVfirst_noun=horoscope
p132
I709
sVfirst_noun=display
p133
I450
sVfirst_noun=administration
p134
I19
sVfirst_noun=idea
p135
I735
sVfirst_noun=brand
p136
I174
sVfirst_noun=speed
p137
I1367
sVfirst_noun=accident
p138
I7
sVfirst_noun=gemstone
p139
I627
sVfirst_noun=hairless
p140
I666
sVfirst_noun=pan
p141
I1025
sVfirst_noun=emperor
p142
I495
sVfirst_word_token=approximately
p143
I1776
sVfirst_noun=par
p144
I1028
sVfirst_noun=invention
p145
I768
sVfirst_noun=weight
p146
I1618
sVfirst_noun=style
p147
I1414
sVfirst_noun=post
p148
I1111
sVfirst_noun=cereal
p149
I239
sVfirst_noun=alloy
p150
I38
sVfirst_noun=woman
p151
I1639
sVfirst_noun=indicate
p152
I747
sVfirst_noun=audio
p153
I80
sVfirst_noun=garbage
p154
I622
sVfirst_noun=glue
p155
I641
sVfirst_noun=air
p156
I30
sVfirst_noun=movie
p157
I940
sVfirst_noun=process
p158
I1137
sVfirst_noun=take
p159
I1457
sVfirst_noun=underage
p160
I1558
sVfirst_noun=offer
p161
I992
sVfirst_noun=show-biz
p162
I1314
sVfirst_noun=mouse
p163
I937
sVfirst_noun=stubborn
p164
I1411
sVfirst_noun=writ
p165
I1650
sVfirst_noun=prefix
p166
I1119
sVfirst_noun=competition
p167
I318
sVfirst_noun=soup
p168
I1356
sVfirst_question_noun=sank
p169
I1743
sVfirst_noun=location
p170
I838
sVfirst_noun=pasta
p171
I1036
sVfirst_noun=hydroelectricity
p172
I730
sVfirst_noun=rate
p173
I1193
sVfirst_noun=motorcycle
p174
I934
sVfirst_noun=guinea
p175
I657
sVfirst_noun=fit
p176
I570
sVfirst_noun=circulatory
p177
I265
sVfirst_noun=hearing
p178
I682
sVfirst_noun=chicken
p179
I256
sVfirst_noun=cancer
p180
I216
sVfirst_noun=brick
p181
I181
sVfirst_noun=pasture
p182
I1037
sVfirst_noun=echidna
p183
I483
sVfirst_noun=birth
p184
I132
sVfirst_noun=horror
p185
I710
sVfirst_noun=goat
p186
I643
sVfirst_noun=nickname
p187
I968
sVfirst_noun=twin
p188
I1554
sVfirst_noun=buffalo
p189
I188
sVfirst_noun=philanthropist
p190
I1059
sVfirst_noun=bomb
p191
I150
sVfirst_noun=direct
p192
I440
sVfirst_noun=income
p193
I743
sVfirst_noun=bank
p194
I97
sVfirst_noun=marl
p195
I871
sVfirst_word_token=winnie
p196
I1837
sVfirst_noun=plan
p197
I1077
sS'first_word_type=RB'
p198
I1846
sVfirst_noun=report
p199
I1219
sVfirst_noun=play
p200
I1084
sVfirst_noun=tourism
p201
I1519
sVfirst_noun=ribbon
p202
I1236
sVfirst_noun=credit
p203
I371
sS'first_word_type=DT'
p204
I1841
sVfirst_noun=drink
p205
I473
sVfirst_noun=prevent
p206
I1128
sVfirst_noun=fluorine
p207
I583
sVfirst_noun=effect
p208
I486
sVfirst_noun=invasion
p209
I766
sVfirst_question_noun=achievement
p210
I1666
sVfirst_noun=clock
p211
I281
sVfirst_noun=diving
p212
I454
sVfirst_noun=tv
p213
I1552
sVfirst_noun=contact
p214
I338
sVfirst_word_token=garry
p215
I1794
sVfirst_noun=milk
p216
I910
sVfirst_question_noun=nationality
p217
I1723
sVfirst_noun=announce
p218
I50
sVfirst_noun=mile
p219
I909
sVfirst_noun=girlfriend
p220
I636
sVfirst_noun=total
p221
I1516
sVfirst_noun=taxi
p222
I1467
sVfirst_noun=brain
p223
I172
sVfirst_noun=stock
p224
I1396
sVfirst_noun=alphabet
p225
I39
sVfirst_noun=handheld
p226
I671
sVfirst_noun=difference
p227
I435
sVfirst_noun=vineyard
p228
I1585
sVfirst_noun=lens
p229
I818
sVfirst_noun=agency
p230
I26
sVfirst_noun=female
p231
I556
sVfirst_noun=barroom
p232
I101
sVfirst_noun=calendar
p233
I210
sVfirst_noun=acronym
p234
I12
sVfirst_noun=become
p235
I110
sVfirst_noun=latitude
p236
I807
sVfirst_noun=distinguishing
p237
I453
sVfirst_noun=decathlon
p238
I405
sVfirst_noun=cricket
p239
I372
sVfirst_noun=daughter
p240
I400
sVfirst_noun=gulf
p241
I660
sVfirst_noun=male
p242
I862
sVfirst_noun=release
p243
I1215
sVfirst_noun=mall
p244
I863
sVfirst_noun=travelling
p245
I1534
sVfirst_noun=abacus
p246
I0
sVfirst_noun=proliferation
p247
I1145
sVfirst_noun=prom
p248
I1146
sVfirst_noun=queen
p249
I1174
sVfirst_question_noun=disease
p250
I1692
sVfirst_noun=analysis
p251
I46
sVfirst_noun=hydrogen
p252
I731
sVfirst_noun=coffee
p253
I292
sVfirst_noun=silver
p254
I1319
sVfirst_noun=text
p255
I1491
sVfirst_noun=tour
p256
I1518
sVfirst_noun=category
p257
I231
sVfirst_noun=wine
p258
I1633
sVfirst_noun=wind
p259
I1630
sVfirst_noun=preschool
p260
I1122
sVfirst_noun=warmup
p261
I1602
sVfirst_noun=spelling
p262
I1368
sVfirst_noun=jeep
p263
I779
sVfirst_noun=nation
p264
I955
sVfirst_noun=weigh
p265
I1617
sVfirst_noun=share
p266
I1303
sVfirst_question_noun=mad
p267
I1712
sVfirst_noun=shark
p268
I1304
sVfirst_noun=line
p269
I827
sVfirst_noun=auto
p270
I83
sVfirst_noun=crooner
p271
I377
sVfirst_noun=stomach
p272
I1397
sVfirst_noun=habitat
p273
I663
sVfirst_word_token=mississippi
p274
I1811
sVfirst_noun=grass
p275
I653
sVfirst_noun=candle
p276
I217
sVfirst_noun=once
p277
I997
sVfirst_noun=seashell
p278
I1281
sVfirst_noun=philatelist
p279
I1060
sVfirst_noun=count
p280
I354
sVfirst_noun=cranberry
p281
I367
sVfirst_noun=orgin
p282
I1009
sVfirst_noun=biorhythm
p283
I130
sVfirst_noun=communist
p284
I312
sVfirst_noun=ranch
p285
I1191
sVfirst_noun=node
p286
I972
sVfirst_noun=sentence
p287
I1293
sVfirst_noun=touch
p288
I1517
sVfirst_noun=pronounce
p289
I1147
sVfirst_question_noun=oven
p290
I1724
sVfirst_noun=strip
p291
I1408
sVfirst_question_noun=thing
p292
I1758
sVfirst_noun=dime
p293
I436
sVfirst_noun=mystery
p294
I948
sVfirst_noun=corporation
p295
I347
sVfirst_noun=port
p296
I1108
sVfirst_noun=pedometer
p297
I1042
sVfirst_noun=apple
p298
I59
sVfirst_noun=distance
p299
I451
sVfirst_noun=aneurysm
p300
I47
sVfirst_noun=five-zone
p301
I572
sVfirst_noun=commission
p302
I309
sVfirst_noun=writing
p303
I1653
sVfirst_noun=country
p304
I356
sVfirst_noun=recipe
p305
I1203
sVfirst_noun=celebrity
p306
I235
sVfirst_noun=stronger
p307
I1409
sVfirst_noun=creature
p308
I370
sVfirst_noun=galaxy
p309
I618
sVfirst_noun=colder
p310
I294
sVfirst_noun=titanium
p311
I1505
sVfirst_noun=yard
p312
I1657
sVfirst_noun=memory
p313
I896
sVfirst_noun=hormone
p314
I707
sVfirst_noun=antidisestablishmentarianism
p315
I53
sVfirst_noun=question
p316
I1175
sVfirst_noun=jogging
p317
I783
sVfirst_noun=win
p318
I1629
sVfirst_noun=jail
p319
I778
sVfirst_noun=nematode
p320
I961
sVfirst_word_token=jackson
p321
I1806
sVfirst_noun=delegate
p322
I414
sVfirst_noun=identity
p323
I737
sVfirst_noun=man
p324
I864
sVfirst_noun=hat
p325
I676
sVfirst_noun=folklore
p326
I588
sVfirst_noun=mad
p327
I855
sVfirst_noun=sound
p328
I1355
sVfirst_noun=civilization
p329
I272
sVfirst_noun=map
p330
I869
sVfirst_noun=owner
p331
I1017
sVfirst_noun=heart
p332
I683
sVfirst_noun=mice
p333
I904
sVfirst_noun=storm
p334
I1400
sVfirst_noun=unemployment
p335
I1560
sVfirst_noun=sun
p336
I1427
sVfirst_noun=team
p337
I1469
sVfirst_noun=livestock
p338
I835
sVfirst_noun=story
p339
I1401
sVfirst_noun=canine
p340
I219
sVfirst_noun=firewall
p341
I568
sVfirst_noun=court
p342
I360
sVfirst_noun=west
p343
I1620
sVfirst_noun=tequila
p344
I1485
sVfirst_question_noun=reason
p345
I1737
sVfirst_noun=bolt
p346
I149
sVfirst_noun=sequel
p347
I1294
sVfirst_noun=manicure
p348
I866
sVfirst_noun=restaurant
p349
I1229
sVfirst_noun=ride
p350
I1238
sVfirst_noun=processor
p351
I1138
sVfirst_noun=wake
p352
I1597
sVfirst_noun=abstract
p353
I3
sVfirst_noun=buxom
p354
I201
sVfirst_noun=status
p355
I1390
sVfirst_noun=job
p356
I781
sVfirst_noun=dot
p357
I469
sVfirst_noun=cut
p358
I388
sVfirst_noun=resting
p359
I1230
sVfirst_noun=sung
p360
I1428
sVfirst_noun=dog
p361
I459
sVfirst_word_token=who
p362
I1833
sVfirst_word_token=for
p363
I1792
sVfirst_word_token=why
p364
I1836
sVfirst_noun=wheel
p365
I1623
sVfirst_noun=blood
p366
I141
sVfirst_noun=airplane
p367
I33
sVfirst_noun=get
p368
I633
sVfirst_noun=tomato
p369
I1510
sVfirst_noun=chancellor
p370
I247
sVfirst_noun=landmark
p371
I804
sVfirst_noun=height
p372
I686
sVfirst_noun=draft
p373
I471
sVfirst_noun=swatch
p374
I1444
sVfirst_noun=studio
p375
I1413
sVfirst_noun=ankle
p376
I49
sVfirst_noun=killing
p377
I795
sVfirst_noun=ash
p378
I71
sVfirst_noun=game
p379
I619
sVfirst_noun=export
p380
I528
sVfirst_question_noun=cross
p381
I1686
sVfirst_noun=test
p382
I1490
sS'is_affirmation'
p383
I1853
sVfirst_noun=start
p384
I1388
sVfirst_noun=trilogy
p385
I1543
sVfirst_noun=pop
p386
I1105
sVfirst_noun=wage
p387
I1596
sVfirst_noun=survivor
p388
I1439
sVfirst_noun=self-portrait
p389
I1290
sVfirst_noun=pox
p390
I1114
sVfirst_noun=blackjack
p391
I137
sVfirst_noun=class
p392
I274
sVfirst_noun=ostrich
p393
I1012
sVfirst_noun=battle
p394
I105
sVfirst_noun=graduate
p395
I649
sVfirst_noun=silent
p396
I1317
sVfirst_noun=project
p397
I1144
sVfirst_question_noun=soda
p398
I1746
sVfirst_noun=murdering
p399
I943
sVfirst_noun=composer
p400
I320
sVfirst_noun=sweeter
p401
I1445
sVfirst_word_token=how
p402
I1800
sVfirst_noun=water
p403
I1607
sVfirst_noun=obelisk
p404
I987
sVfirst_noun=underwater
p405
I1559
sVfirst_noun=lobster
p406
I837
sVfirst_noun=inventor
p407
I769
sVfirst_noun=experience
p408
I526
sVfirst_noun=system
p409
I1454
sVfirst_noun=hotter
p410
I716
sVfirst_noun=noun
p411
I978
sVfirst_noun=nihilist
p412
I971
sVfirst_noun=perfume
p413
I1050
sVfirst_noun=medicine
p414
I889
sVfirst_noun=daycare
p415
I402
sVfirst_noun=combustion
p416
I302
sVfirst_noun=stone
p417
I1398
sVfirst_noun=facility
p418
I532
sVfirst_noun=mistake
p419
I918
sVfirst_noun=cover
p420
I362
sVfirst_noun=seafaring
p421
I1277
sVfirst_word_token=are
p422
I1777
sVfirst_noun=board
p423
I144
sVfirst_question_noun=cyclist
p424
I1687
sVfirst_noun=sign
p425
I1316
sVfirst_word_token=hazmat
p426
I1798
sVfirst_noun=luck
p427
I850
sVfirst_noun=screensaver
p428
I1273
sVfirst_noun=collection
p429
I295
sVfirst_noun=weather
p430
I1612
sVfirst_noun=try
p431
I1546
sVfirst_noun=jury
p432
I787
sVfirst_noun=hermit
p433
I692
sVfirst_noun=spermologer
p434
I1371
sVfirst_noun=bestselling
p435
I120
sVfirst_noun=father
p436
I547
sVfirst_word_token=has
p437
I1796
sVfirst_noun=feather
p438
I552
sVfirst_noun=boss
p439
I161
sVfirst_noun=adult
p440
I20
sVfirst_noun=violent
p441
I1586
sVfirst_question_noun=place
p442
I1730
sVfirst_noun=member
p443
I895
sVfirst_noun=zipper
p444
I1663
sVfirst_noun=hurdle
p445
I726
sVfirst_noun=neanderthal
p446
I959
sVfirst_noun=community
p447
I313
sVfirst_noun=tornado
p448
I1515
sVfirst_noun=tattoo
p449
I1466
sVfirst_noun=blue
p450
I143
sVfirst_noun=crocodile
p451
I376
sVfirst_noun=book
p452
I155
sVfirst_noun=boom
p453
I156
sVfirst_noun=flog
p454
I578
sVfirst_noun=doctor
p455
I456
sVfirst_noun=boob
p456
I154
sVfirst_question_noun=fight
p457
I1695
sVfirst_noun=official
p458
I994
sVfirst_noun=change
p459
I248
sVfirst_noun=bear
p460
I109
sVfirst_noun=niece
p461
I969
sVfirst_noun=eruption
p462
I514
sVfirst_noun=sword
p463
I1448
sVfirst_noun=shorn
p464
I1310
sVfirst_noun=season
p465
I1282
sVfirst_noun=doughnut
p466
I470
sVfirst_noun=honorary
p467
I706
sVfirst_noun=coppertop
p468
I344
sVfirst_noun=balance
p469
I92
sS'first_word_type=VBZ'
p470
I1849
sVfirst_noun=structure
p471
I1410
sVfirst_noun=friendliness
p472
I610
sVfirst_noun=neurosurgeon
p473
I963
sVfirst_noun=bet
p474
I121
sVfirst_noun=seeing
p475
I1289
sVfirst_noun=anyone
p476
I55
sVfirst_noun=caul
p477
I232
sS'first_word_type=VBG'
p478
I1848
sVfirst_noun=colony
p479
I298
sVfirst_question_noun=kind
p480
I1710
sVfirst_noun=climb
p481
I278
sVfirst_noun=cumin
p482
I385
sVfirst_noun=quality
p483
I1171
sVfirst_noun=macaroni
p484
I854
sVfirst_noun=press
p485
I1126
sVfirst_question_noun=paper
p486
I1727
sVfirst_noun=yesterday
p487
I1659
sVfirst_noun=trillion
p488
I1542
sVfirst_noun=wrestler
p489
I1649
sVfirst_noun=teddy
p490
I1472
sVfirst_noun=mine
p491
I914
sVfirst_noun=power
p492
I1113
sVfirst_noun=gestation
p493
I632
sVfirst_noun=evening
p494
I517
sVfirst_noun=stadium
p495
I1382
sVfirst_noun=feature
p496
I553
sVfirst_noun=brake
p497
I173
sVfirst_noun=fruit
p498
I612
sVfirst_noun=cruiser
p499
I381
sVfirst_noun=flag
p500
I573
sVfirst_noun=territory
p501
I1488
sVfirst_noun=advertizing
p502
I23
sVfirst_noun=term
p503
I1487
sVfirst_noun=newspaper
p504
I965
sVfirst_noun=sprocket
p505
I1380
sVfirst_noun=fastener
p506
I546
sVfirst_noun=pyramid
p507
I1170
sVfirst_noun=sugar
p508
I1424
sVfirst_noun=personality
p509
I1053
sVfirst_question_noun=body
p510
I1673
sVfirst_noun=geoscientist
p511
I631
sVfirst_noun=apartment
p512
I57
sVfirst_noun=craft
p513
I366
sVfirst_noun=needle
p514
I960
sVfirst_noun=channel
p515
I249
sVfirst_noun=vichyssoise
p516
I1578
sVfirst_noun=hour
p517
I717
sVfirst_noun=automobile
p518
I85
sVfirst_noun=pita
p519
I1073
sVfirst_noun=kilamanjaro
p520
I792
sVfirst_noun=wild
p521
I1628
sVfirst_noun=alcohol
p522
I36
sVfirst_noun=girl
p523
I635
sVfirst_noun=housewarming
p524
I719
sVfirst_noun=tale
p525
I1458
sVfirst_noun=reading
p526
I1198
sVfirst_noun=commodity
p527
I311
sVfirst_question_noun=divorce
p528
I1693
sVfirst_noun=form
p529
I595
sVfirst_noun=literary
p530
I831
sVfirst_noun=dollar
p531
I461
sVfirst_noun=device
p532
I424
sVfirst_word_token=does
p533
I1791
sVfirst_noun=believe
p534
I116
sVfirst_noun=event
p535
I518
sVfirst_word_token=ray
p536
I1818
sVfirst_noun=director
p537
I442
sVfirst_noun=spritsail
p538
I1379
sVfirst_noun=president
p539
I1125
sVfirst_noun=phonograph
p540
I1063
sVfirst_noun=desert
p541
I420
sVfirst_noun=quick
p542
I1176
sVfirst_noun=frequency
p543
I607
sVfirst_noun=saliva
p544
I1259
sVfirst_question_noun=walk
p545
I1763
sVfirst_noun=mayor
p546
I885
sVfirst_noun=campaign
p547
I215
sVfirst_noun=river
p548
I1244
sVfirst_noun=resident
p549
I1224
sVfirst_noun=born
p550
I158
sVfirst_noun=wear
p551
I1611
sVfirst_noun=owe
p552
I1016
sVfirst_noun=diamond
p553
I428
sVfirst_noun=burn
p554
I196
sVfirst_noun=city
p555
I270
sVfirst_noun=verdict
p556
I1574
sVfirst_noun=dioxide
p557
I438
sVfirst_noun=monster
p558
I928
sVfirst_question_token=when
p559
I1771
sVfirst_noun=door
p560
I466
sVfirst_noun=rowing
p561
I1252
sVfirst_question_noun=did
p562
I1691
sVfirst_word_token=would
p563
I1840
sVfirst_noun=trademark
p564
I1525
sVfirst_noun=culture
p565
I384
sVfirst_noun=century
p566
I238
sVfirst_noun=span
p567
I1362
sVfirst_noun=rest
p568
I1228
sVfirst_noun=compare
p569
I316
sVfirst_noun=alveoli
p570
I41
sVfirst_noun=impact
p571
I740
sVfirst_noun=softer
p572
I1346
sVfirst_noun=colt
p573
I300
sVfirst_noun=prize
p574
I1133
sVfirst_noun=built
p575
I193
sVfirst_noun=care
p576
I225
sVfirst_noun=card
p577
I224
sVfirst_noun=program
p578
I1142
sVfirst_noun=autobiography
p579
I84
sVfirst_noun=combat
p580
I301
sVfirst_noun=intelligence
p581
I762
sVfirst_noun=build
p582
I191
sVfirst_noun=constitution
p583
I337
sVfirst_noun=ticket
p584
I1500
sVfirst_noun=space
p585
I1360
sVfirst_noun=tunnel
p586
I1550
sVfirst_noun=clone
p587
I282
sVfirst_question_noun=show
p588
I1745
sVfirst_noun=swap
p589
I1442
sVfirst_noun=transistor
p590
I1531
sVfirst_noun=mouth
p591
I938
sVfirst_noun=frozen
p592
I611
sVfirst_noun=cork
p593
I346
sVfirst_noun=vesuvius
p594
I1576
sVfirst_noun=hotel
p595
I715
sVfirst_noun=brother
p596
I185
sVfirst_noun=panel
p597
I1026
sVfirst_noun=painter
p598
I1023
sVfirst_noun=side
p599
I1315
sVfirst_noun=factor
p600
I533
sVfirst_noun=amendment
p601
I44
sVfirst_noun=suffrage
p602
I1423
sVfirst_noun=constipation
p603
I336
sVfirst_noun=chocolate
p604
I259
sVfirst_noun=letter
p605
I821
sVfirst_noun=bridge
p606
I182
sVfirst_noun=victory
p607
I1580
sVfirst_noun=meter
p608
I902
sS'first_question_noun=n/a'
p609
I1720
sVfirst_noun=psorisis
p610
I1157
sVfirst_noun=concert
p611
I324
sVfirst_noun=crop
p612
I378
sVfirst_noun=gun
p613
I661
sVfirst_noun=pilot
p614
I1071
sVfirst_noun=wart
p615
I1604
sVfirst_noun=vacuum
p616
I1568
sVfirst_noun=guy
p617
I662
sVfirst_noun=appearance
p618
I58
sVfirst_noun=reputation
p619
I1220
sVfirst_noun=whitetail
p620
I1625
sVfirst_question_token=why
p621
I1773
sVfirst_noun=eat
p622
I482
sVfirst_noun=proper
p623
I1149
sVfirst_noun=magenta
p624
I858
sVfirst_noun=criticism
p625
I374
sVfirst_noun=x-man
p626
I1655
sVfirst_noun=radio
p627
I1184
sVfirst_noun=costume
p628
I352
sVfirst_noun=relationship
p629
I1214
sVfirst_noun=bond
p630
I152
sVfirst_noun=bone
p631
I153
sVfirst_noun=use
p632
I1566
sVfirst_noun=coconut
p633
I290
sVfirst_noun=embassy
p634
I494
sVfirst_noun=dish
p635
I448
sVfirst_noun=exchange
p636
I521
sVfirst_noun=research
p637
I1222
sVfirst_noun=penny
p638
I1045
sVfirst_noun=seaport
p639
I1279
sVfirst_noun=disc
p640
I446
sVfirst_noun=sea
p641
I1276
sVfirst_noun=sex
p642
I1301
sVfirst_noun=turnkey
p643
I1551
sVfirst_noun=formula
p644
I596
sVfirst_noun=cocktail
p645
I289
sVfirst_noun=death
p646
I403
sVfirst_question_noun=drink
p647
I1694
sVfirst_noun=gland
p648
I637
sVfirst_word_token=did
p649
I1789
sVfirst_noun=science
p650
I1269
sVfirst_noun=white
p651
I1624
sVfirst_noun=middle
p652
I907
sVfirst_noun=surrender
p653
I1438
sVfirst_noun=submarine
p654
I1416
sVfirst_noun=o
p655
I985
sVfirst_noun=nonchlorine
p656
I975
sVfirst_noun=empire
p657
I496
sVfirst_noun=drawer
p658
I472
sVfirst_noun=band
p659
I95
sVfirst_noun=c
p660
I202
sVfirst_noun=bourdon
p661
I165
sVfirst_noun=speak
p662
I1363
sVfirst_noun=baseball
p663
I102
sVfirst_noun=ballet
p664
I94
sVfirst_noun=moon
p665
I930
sVfirst_noun=work
p666
I1644
sVfirst_noun=worm
p667
I1646
sVfirst_noun=dogtown
p668
I460
sVfirst_noun=worn
p669
I1647
sVfirst_question_noun=wine
p670
I1765
sVfirst_noun=word
p671
I1643
sVfirst_question_noun=war
p672
I1764
sVfirst_noun=videotape
p673
I1582
sVfirst_noun=snack
p674
I1335
sVfirst_noun=deer
p675
I410
sVfirst_noun=perfect
p676
I1048
sVfirst_noun=ability
p677
I2
sVfirst_noun=modern
p678
I922
sVfirst_noun=full-length
p679
I614
sVfirst_noun=law
p680
I808
sVfirst_noun=refrain
p681
I1209
sVfirst_noun=thunder
p682
I1499
sVfirst_noun=road
p683
I1245
sVfirst_noun=weird
p684
I1619
sVfirst_noun=million
p685
I912
sVfirst_noun=success
p686
I1420
sVfirst_noun=corpus
p687
I348
sVfirst_noun=rum
p688
I1257
sVfirst_noun=method
p689
I903
sVfirst_noun=database
p690
I398
sVfirst_noun=compass
p691
I317
sVfirst_noun=commander
p692
I307
sVfirst_word_token=if
p693
I1801
sVfirst_noun=petroleum
p694
I1056
sVfirst_noun=petrol
p695
I1055
sVfirst_question_noun=flavor
p696
I1697
sVfirst_noun=block
p697
I140
sVfirst_noun=vowel
p698
I1594
sVfirst_noun=minister
p699
I915
sVfirst_noun=hardest
p700
I675
sVfirst_noun=logic
p701
I841
sVfirst_noun=defeat
p702
I411
sVfirst_noun=victor
p703
I1579
sVfirst_noun=anthem
p704
I52
sVfirst_noun=wide
p705
I1626
sVfirst_noun=snowboard
p706
I1339
sVfirst_noun=write
p707
I1651
sVfirst_noun=cost
p708
I351
sVfirst_noun=bus
p709
I197
sVfirst_noun=beach
p710
I108
sVfirst_noun=poem
p711
I1089
sVfirst_noun=poet
p712
I1090
sVfirst_noun=increase
p713
I746
sVfirst_noun=bug
p714
I189
sVfirst_noun=polyester
p715
I1100
sVfirst_noun=chef
p716
I253
sVfirst_noun=earthquake
p717
I481
sVfirst_noun=glory
p718
I640
sVfirst_noun=someone
p719
I1350
sVfirst_noun=equilibrium
p720
I510
sVfirst_noun=summer
p721
I1426
sVfirst_noun=done
p722
I465
sVfirst_noun=dolphin
p723
I462
sVfirst_noun=office
p724
I993
sVfirst_noun=quotation
p725
I1179
sVfirst_noun=employee
p726
I498
sVfirst_noun=syndrome
p727
I1451
sVfirst_noun=heating
p728
I685
sVfirst_noun=razor
p729
I1196
sVfirst_noun=teenager
p730
I1474
sVfirst_noun=paint
p731
I1021
sVfirst_noun=bread
p732
I176
sVfirst_noun=proud
p733
I1154
sVfirst_noun=want
p734
I1600
sVfirst_noun=chick
p735
I255
sVfirst_noun=amount
p736
I45
sVfirst_noun=boardwalk
p737
I145
sVfirst_noun=exhibit
p738
I525
sVfirst_noun=designer
p739
I422
sVfirst_noun=percent
p740
I1046
sVfirst_noun=bullseye
p741
I195
sVfirst_question_noun=sort
p742
I1749
sVfirst_noun=show
p743
I1313
sVfirst_question_noun=call
p744
I1676
sVfirst_word_token=from
p745
I1793
sVfirst_noun=snow
p746
I1338
sVfirst_noun=come
p747
I303
sVfirst_noun=reality
p748
I1199
sVfirst_noun=case
p749
I228
sVfirst_question_noun=something
p750
I1748
sVfirst_noun=cash
p751
I229
sVfirst_noun=jersey
p752
I780
sVfirst_noun=secretary
p753
I1287
sVfirst_noun=junk
p754
I786
sVfirst_noun=shoe
p755
I1309
sVfirst_noun=naval
p756
I958
sVfirst_noun=melt
p757
I894
sVfirst_noun=wood
p758
I1641
sVfirst_noun=maker
p759
I861
sVfirst_noun=coastal
p760
I287
sVfirst_noun=painting
p761
I1024
sVfirst_noun=vaccine
p762
I1567
sVfirst_noun=hairy
p763
I667
sVfirst_noun=capital
p764
I220
sVfirst_noun=villi
p765
I1584
sVfirst_noun=ambassador
p766
I43
sVfirst_noun=stop
p767
I1399
sVfirst_noun=steam
p768
I1391
sVfirst_word_token=stuart
p769
I1824
sVfirst_noun=auberge
p770
I79
sVfirst_noun=taste
p771
I1465
sVfirst_noun=architect
p772
I66
sVfirst_noun=stamp
p773
I1384
sVfirst_question_noun=year
p774
I1766
sVfirst_noun=action
p775
I13
sVfirst_noun=monitor
p776
I927
sVfirst_noun=purpose
p777
I1165
sVfirst_noun=bless
p778
I138
sVfirst_noun=founding
p779
I600
sVfirst_noun=group
p780
I655
sVfirst_noun=won
p781
I1640
sVfirst_question_noun=oxygen
p782
I1726
sVfirst_noun=tie
p783
I1502
sVfirst_noun=jockey
p784
I782
sVfirst_noun=shorter
p785
I1311
sVfirst_noun=pillow
p786
I1070
sVfirst_noun=epicenter
p787
I509
sVfirst_noun=bike
p788
I125
sVfirst_noun=polyorchid
p789
I1101
sVfirst_noun=back
p790
I88
sVfirst_noun=refer
p791
I1207
sVfirst_noun=cowboy
p792
I363
sVfirst_question_noun=county
p793
I1685
sVfirst_noun=lady
p794
I802
sVfirst_question_noun=cause
p795
I1678
sVfirst_question_noun=business
p796
I1675
sVfirst_noun=generation
p797
I629
sVfirst_noun=frequent
p798
I608
sVfirst_noun=housewife
p799
I720
sVfirst_noun=toothbrush
p800
I1514
sVfirst_noun=tenpin
p801
I1484
sVfirst_noun=bottle
p802
I162
sVfirst_word_token=kosovo
p803
I1808
sVfirst_noun=millennium
p804
I911
sVfirst_noun=incorporate
p805
I745
sVfirst_noun=score
p806
I1270
sVfirst_question_noun=medium
p807
I1714
sVfirst_noun=northeast
p808
I976
sVfirst_noun=review
p809
I1233
sVfirst_noun=site
p810
I1324
sVfirst_noun=morning
p811
I931
sVfirst_noun=resurrectionist
p812
I1231
sVfirst_noun=genius
p813
I630
sVfirst_noun=parachute
p814
I1030
sVfirst_noun=employ
p815
I497
sVfirst_noun=author
p816
I82
sVfirst_noun=attack
p817
I77
sVfirst_noun=rail
p818
I1186
sVfirst_noun=rain
p819
I1188
sVfirst_noun=radius
p820
I1185
sVfirst_noun=singer
p821
I1320
sVfirst_noun=tree
p822
I1537
sVfirst_noun=surgeon
p823
I1436
sVfirst_noun=astronaut
p824
I75
sVfirst_noun=swimming
p825
I1447
sVfirst_noun=insert
p826
I757
sVfirst_noun=older
p827
I996
sVfirst_noun=chain
p828
I241
sVfirst_noun=sculptress
p829
I1274
sVfirst_noun=explorer
p830
I527
sVfirst_noun=chair
p831
I242
sVfirst_noun=railroad
p832
I1187
sVfirst_noun=living
p833
I836
sVfirst_noun=character
p834
I251
sVfirst_noun=orange
p835
I1004
sVfirst_noun=achievement
p836
I9
sVfirst_noun=travel
p837
I1533
sVfirst_noun=oxidation
p838
I1019
sVfirst_noun=ya
p839
I1656
sVfirst_noun=join
p840
I784
sVfirst_noun=sort
p841
I1354
sVfirst_noun=twirl
p842
I1555
sVfirst_word_token=names
p843
I1814
sVfirst_noun=cross-your-heart
p844
I379
sVfirst_noun=student
p845
I1412
sVfirst_noun=royal
p846
I1253
sVfirst_noun=dice
p847
I430
sVfirst_noun=equity
p848
I511
sVfirst_noun=army
p849
I68
sVfirst_noun=oven
p850
I1015
sS'first_question_token=n/a'
p851
I1769
sVfirst_noun=backup
p852
I90
sVfirst_noun=organization
p853
I1008
sVfirst_noun=itch
p854
I776
sVfirst_noun=wet
p855
I1621
sVfirst_noun=procedure
p856
I1136
sVfirst_noun=drunk
p857
I476
sVfirst_noun=hump
p858
I723
sVfirst_noun=application
p859
I60
sVfirst_noun=ring
p860
I1242
sVfirst_noun=serfdom
p861
I1295
sVfirst_noun=mehitabel
p862
I893
sVfirst_noun=approximate
p863
I62
sVfirst_noun=jacket
p864
I777
sVfirst_noun=therapy
p865
I1494
sVfirst_noun=pizza
p866
I1075
sVfirst_noun=basketball
p867
I103
sVfirst_noun=isthmus
p868
I775
sVfirst_noun=layer
p869
I811
sVfirst_noun=employment
p870
I499
sVfirst_noun=cane
p871
I218
sS'first_word_type=NNP'
p872
I1845
sVfirst_question_noun=report
p873
I1739
sVfirst_noun=record
p874
I1204
sVfirst_noun=control
p875
I342
sVfirst_noun=contibution
p876
I339
sVfirst_noun=giraffe
p877
I634
sVfirst_noun=menace
p878
I897
sVfirst_question_noun=film
p879
I1696
sS'first_noun=n/a'
p880
I951
sVfirst_noun=sculpture
p881
I1275
sVfirst_noun=ox
p882
I1018
sVfirst_noun=computer
p883
I322
sVfirst_word_token=of
p884
I1815
sVfirst_word_token=on
p885
I1816
sVfirst_noun=origin
p886
I1010
sVfirst_noun=keyboard
p887
I789
sVfirst_noun=sky
p888
I1328
sVfirst_noun=southern
p889
I1358
sVfirst_noun=deconstructionism
p890
I409
sVfirst_noun=continent
p891
I340
sVfirst_noun=ion
p892
I770
sVfirst_noun=human
p893
I721
sVfirst_noun=red
p894
I1205
sVfirst_noun=mom
p895
I924
sVfirst_noun=tsetse
p896
I1547
sVfirst_noun=figure
p897
I560
sVfirst_noun=kilowatt
p898
I796
sVfirst_noun=search
p899
I1280
sVfirst_noun=hyperlink
p900
I733
sVfirst_question_noun=continent
p901
I1682
sVfirst_noun=ingredient
p902
I751
sVfirst_noun=gas
p903
I624
sVfirst_noun=gay
p904
I626
sVfirst_noun=prophet
p905
I1150
sVfirst_noun=tragedy
p906
I1528
sVfirst_noun=fuel
p907
I613
sVfirst_noun=ball
p908
I93
sVfirst_noun=list
p909
I829
sVfirst_word_token=a
p910
I1774
sVfirst_noun=abbreviation
p911
I1
sVfirst_noun=mustard
p912
I946
sVfirst_noun=villain
p913
I1583
sVfirst_noun=stand
p914
I1385
sVfirst_word_token=should
p915
I1822
sVfirst_question_noun=avenue
p916
I1669
sVfirst_noun=bell
p917
I117
sVfirst_noun=inkhorn
p918
I755
sVfirst_noun=belt
p919
I118
sVfirst_noun=fear
p920
I550
sVfirst_noun=feat
p921
I551
sVfirst_noun=mayfly
p922
I883
sVfirst_question_noun=sodium
p923
I1747
sVfirst_noun=contract
p924
I341
sVfirst_noun=face
p925
I531
sVfirst_noun=fun
p926
I615
sVfirst_noun=skin
p927
I1326
sVfirst_question_noun=quit
p928
I1736
sVfirst_noun=courier
p929
I359
sVfirst_noun=stern
p930
I1393
sVfirst_noun=obscene
p931
I989
sVfirst_noun=rock
p932
I1246
sVfirst_noun=vegetation
p933
I1572
sVfirst_noun=rugby
p934
I1254
sVfirst_noun=day
p935
I401
sVfirst_word_token=shea
p936
I1821
sVfirst_noun=tuberculosis
p937
I1548
sVfirst_noun=cop
p938
I343
sVfirst_noun=matchstick
p939
I880
sVfirst_noun=ground
p940
I654
sVfirst_noun=pseudonym
p941
I1156
sVfirst_word_token=tell
p942
I1825
sVfirst_noun=motor
p943
I933
sVfirst_noun=training
p944
I1530
sVfirst_noun=circulation
p945
I264
sVfirst_noun=biologist
p946
I129
sVfirst_noun=got
p947
I646
sVfirst_noun=lawyer
p948
I810
sVfirst_noun=doesn
p949
I458
sVfirst_noun=execution
p950
I522
sVfirst_noun=baby
p951
I87
sVfirst_noun=fowl
p952
I603
sVfirst_noun=brunette
p953
I186
sVfirst_noun=laboratory
p954
I801
sVfirst_noun=merchant
p955
I900
sVfirst_noun=presidency
p956
I1124
sS'first_word_type=WRB'
p957
I1852
sVfirst_noun=labor
p958
I800
sVfirst_question_noun=converge
p959
I1683
sVfirst_question_noun=left
p960
I1711
sVfirst_noun=slogan
p961
I1332
sVfirst_noun=teeth
p962
I1475
sVfirst_noun=stretch
p963
I1406
sVfirst_noun=claim
p964
I273
sVfirst_noun=broadcast
p965
I183
sVfirst_noun=world
p966
I1645
sVfirst_noun=ratio
p967
I1195
sVfirst_noun=variety
p968
I1571
sVfirst_noun=horologist
p969
I708
sVfirst_noun=education
p970
I485
sVfirst_noun=freeway
p971
I606
sVfirst_noun=soap
p972
I1341
sVfirst_noun=tallest
p973
I1460
sVfirst_noun=companion
p974
I314
sVfirst_noun=www.questions.com
p975
I1654
sVfirst_noun=alley
p976
I37
sVfirst_noun=capitalism
p977
I221
sVfirst_noun=gandy
p978
I620
sVfirst_noun=highway
p979
I697
sVfirst_noun=wall
p980
I1598
sVfirst_noun=nanometer
p981
I953
sVfirst_noun=temperance
p982
I1479
sVfirst_noun=distinction
p983
I452
sVfirst_noun=bikini
p984
I126
sVfirst_noun=nose
p985
I977
sVfirst_noun=wrap
p986
I1648
sVfirst_noun=octopus
p987
I991
sVfirst_noun=riding
p988
I1240
sVfirst_question_noun=nation
p989
I1722
sVfirst_noun=aircraft
p990
I31
sVfirst_noun=source
p991
I1357
sVfirst_noun=hurricane
p992
I727
sVfirst_noun=glass
p993
I638
sVfirst_noun=bid
p994
I124
sVfirst_noun=cabinet
p995
I203
sVfirst_noun=island
p996
I773
sVfirst_noun=fishing
p997
I569
sVfirst_noun=language
p998
I805
sVfirst_noun=hazel
p999
I679
sVfirst_noun=syrup
p1000
I1453
sVfirst_noun=programming
p1001
I1143
sVfirst_noun=telephone
p1002
I1476
sVfirst_noun=snore
p1003
I1337
sVfirst_noun=faith
p1004
I535
sVfirst_question_noun=meeting
p1005
I1715
sVfirst_noun=revelation
p1006
I1232
sVfirst_question_noun=religion
p1007
I1738
sVfirst_noun=chapter
p1008
I250
sVfirst_noun=technique
p1009
I1471
sVfirst_noun=flea
p1010
I575
sVfirst_noun=airline
p1011
I32
sVfirst_noun=phenomenon
p1012
I1058
sVfirst_noun=rule
p1013
I1256
sVfirst_noun=berry
p1014
I119
sVfirst_noun=warp
p1015
I1603
sVfirst_noun=player
p1016
I1085
sVfirst_noun=opener
p1017
I999
sVfirst_noun=murder
p1018
I942
sVfirst_noun=marvel
p1019
I875
sVfirst_noun=longer
p1020
I842
sVfirst_noun=purveyor
p1021
I1167
sVfirst_noun=sperm
p1022
I1370
sVfirst_noun=crosstalk
p1023
I380
sVfirst_noun=voter
p1024
I1593
sVfirst_noun=dance
p1025
I394
sVfirst_noun=darker
p1026
I397
sVfirst_noun=non-fiction
p1027
I974
sVfirst_noun=reactivity
p1028
I1197
sVfirst_noun=filling
p1029
I562
sVfirst_noun=superstar
p1030
I1431
sVfirst_noun=tradition
p1031
I1527
sVfirst_noun=direction
p1032
I441
sVfirst_noun=surfboard
p1033
I1435
sVfirst_word_token=italy
p1034
I1805
sVfirst_noun=ethology
p1035
I516
sVfirst_noun=sodium
p1036
I1344
sVfirst_noun=secret
p1037
I1286
sVfirst_noun=rabbit
p1038
I1180
sVfirst_noun=flying
p1039
I585
sVfirst_noun=erupt
p1040
I513
sVfirst_noun=development
p1041
I423
sVfirst_noun=heliologist
p1042
I687
sVfirst_noun=ink
p1043
I754
sVfirst_noun=train
p1044
I1529
sVfirst_noun=soy
p1045
I1359
sVfirst_question_noun=president
p1046
I1734
sVfirst_noun=enter
p1047
I507
sVfirst_question_token=where
p1048
I1772
sVfirst_noun=color
p1049
I299
sVfirst_noun=made
p1050
I856
sVfirst_noun=fractal
p1051
I604
sVfirst_noun=bibliography
p1052
I123
sVfirst_noun=racoon
p1053
I1182
sVfirst_noun=anymore
p1054
I54
sVfirst_noun=terabyte
p1055
I1486
sVfirst_noun=gangland
p1056
I621
sVfirst_noun=vodka
p1057
I1591
sVfirst_question_noun=owe
p1058
I1725
sVfirst_noun=consider
p1059
I333
sVfirst_noun=importance
p1060
I741
sVfirst_noun=originate
p1061
I1011
sVfirst_noun=family
p1062
I537
sVfirst_noun=dictator
p1063
I431
sVfirst_noun=phone
p1064
I1062
sVfirst_noun=symbol
p1065
I1449
sVfirst_noun=zip
p1066
I1662
sVfirst_noun=poetry
p1067
I1091
sVfirst_noun=correct
p1068
I349
sVfirst_noun=year
p1069
I1658
sVfirst_question_token=what
p1070
I1770
sVfirst_noun=criticizing
p1071
I375
sVfirst_question_noun=forehand
p1072
I1698
sVfirst_question_noun=date
p1073
I1688
sVfirst_noun=wife
p1074
I1627
sVfirst_noun=spectrum
p1075
I1366
sVfirst_noun=publish
p1076
I1159
sVfirst_noun=chairman
p1077
I244
sVfirst_noun=senator
p1078
I1291
sVfirst_noun=adjournment
p1079
I18
sVfirst_noun=elephant
p1080
I492
sVfirst_noun=airport
p1081
I34
sVfirst_noun=treehouse
p1082
I1538
sVfirst_noun=incompetent
p1083
I744
sVfirst_noun=farther
p1084
I542
sVfirst_noun=place
p1085
I1076
sVfirst_noun=earth
p1086
I480
sVfirst_noun=soccer
p1087
I1342
sVfirst_noun=tender
p1088
I1482
sVfirst_noun=prison
p1089
I1132
sVfirst_noun=occupation
p1090
I990
sVfirst_noun=pet
p1091
I1054
sVfirst_noun=ten
p1092
I1481
sVfirst_noun=looking
p1093
I845
sVfirst_question_noun=river
p1094
I1742
sVfirst_noun=tea
p1095
I1468
sVfirst_noun=regulation
p1096
I1212
sVfirst_noun=arab
p1097
I63
sVfirst_noun=polio
p1098
I1097
sVfirst_noun=fondness
p1099
I589
sVfirst_noun=uniform
p1100
I1561
sVfirst_noun=witch
p1101
I1637
sVfirst_noun=better
p1102
I122
sVfirst_noun=joke
p1103
I785
sVfirst_noun=park
p1104
I1031
sVfirst_noun=cigarette
p1105
I263
sVfirst_question_noun=movie
p1106
I1719
sVfirst_noun=bowl
p1107
I168
sVfirst_noun=disaccharide
p1108
I444
sVfirst_question_noun=contibution
p1109
I1681
sVfirst_noun=part
p1110
I1032
sVfirst_noun=fought
p1111
I597
sVfirst_noun=role
p1112
I1247
sVfirst_noun=dimension
p1113
I437
sVfirst_noun=university
p1114
I1563
sVfirst_noun=prayer
p1115
I1117
sVfirst_noun=recetrack
p1116
I1202
sVfirst_word_token=the
p1117
I1826
sVfirst_noun=helium
p1118
I688
sVfirst_noun=duel
p1119
I478
sVfirst_noun=treatment
p1120
I1536
sVfirst_noun=region
p1121
I1211
sVfirst_noun=element
p1122
I491
sVfirst_noun=writer
p1123
I1652
sVfirst_noun=mountain
p1124
I936
sVfirst_question_noun=deal
p1125
I1690
sVfirst_noun=crack
p1126
I365
sVfirst_noun=address
p1127
I17
sVfirst_noun=attendance
p1128
I78
sVfirst_noun=operating
p1129
I1001
sVfirst_noun=hipster
p1130
I698
sVfirst_noun=kid
p1131
I790
sVfirst_noun=call
p1132
I211
sVfirst_noun=sink
p1133
I1322
sVfirst_question_noun=jeep
p1134
I1708
sVfirst_noun=hungry
p1135
I724
sVfirst_noun=telescope
p1136
I1477
sVfirst_noun=reign
p1137
I1213
sVfirst_noun=niche
p1138
I966
sVfirst_noun=iron
p1139
I772
sVfirst_noun=tarantula
p1140
I1462
sVfirst_word_token=where
p1141
I1831
sVfirst_noun=producer
p1142
I1139
sVfirst_noun=diagram
p1143
I425
sVfirst_word_token=woodrow
p1144
I1839
sVfirst_noun=aurora
p1145
I81
sVfirst_word_token=at
p1146
I1779
sVfirst_noun=club
p1147
I285
sVfirst_noun=playwright
p1148
I1087
sVfirst_noun=website
p1149
I1614
sVfirst_question_noun=gold
p1150
I1701
sVfirst_noun=missile
p1151
I916
sVfirst_question_noun=plane
p1152
I1731
sVfirst_noun=hit
p1153
I700
sVfirst_noun=mid
p1154
I905
sVfirst_noun=novel
p1155
I979
sVfirst_noun=consist
p1156
I334
sVfirst_noun=windshield
p1157
I1632
sVfirst_noun=thine
p1158
I1495
sVfirst_noun=manufacture
p1159
I867
sVfirst_noun=adding
p1160
I16
sVfirst_noun=dentist
p1161
I418
sVfirst_noun=executor
p1162
I524
sVfirst_noun=spring
p1163
I1378
sVfirst_noun=affect
p1164
I24
sVfirst_noun=heroine
p1165
I694
sVfirst_noun=conservationist
p1166
I332
sVfirst_noun=highschool
p1167
I696
sVfirst_noun=stricken
p1168
I1407
sVfirst_noun=hamburger
p1169
I668
sVfirst_word_token=can
p1170
I1782
sVfirst_noun=definition
p1171
I412
sVfirst_noun=online
p1172
I998
sVfirst_noun=suey
p1173
I1422
sVfirst_noun=pig
p1174
I1069
sVfirst_noun=watermelon
p1175
I1609
sVfirst_noun=oyster
p1176
I1020
sVfirst_noun=pressure
p1177
I1127
sVfirst_noun=opponent
p1178
I1002
sVfirst_noun=circus
p1179
I268
sVfirst_noun=cocaine
p1180
I288
sVfirst_noun=rent
p1181
I1217
sVfirst_noun=clause
p1182
I276
sVfirst_noun=chromatology
p1183
I260
sVfirst_noun=inning
p1184
I756
sVfirst_noun=pub
p1185
I1158
sVfirst_noun=encyclopedia
p1186
I501
sVfirst_noun=ice
p1187
I734
sVfirst_noun=symphony
p1188
I1450
sVfirst_noun=put
p1189
I1168
sVfirst_noun=person
p1190
I1052
sVfirst_noun=hobby
p1191
I701
sVfirst_noun=ukulele
p1192
I1557
sVfirst_noun=something
p1193
I1351
sVfirst_noun=waterfall
p1194
I1608
sVfirst_noun=dialogue
p1195
I427
sVfirst_noun=engine
p1196
I505
sVfirst_noun=month
p1197
I929
sVfirst_question_noun=money
p1198
I1716
sVfirst_noun=delicacy
p1199
I416
sVfirst_noun=come-on
p1200
I304
sVfirst_noun=fast
p1201
I544
sVfirst_noun=type
p1202
I1556
sVfirst_noun=order
p1203
I1006
sVfirst_noun=church
p1204
I262
sVfirst_noun=reason
p1205
I1201
sVfirst_noun=latent
p1206
I806
sVfirst_noun=paintball
p1207
I1022
sVfirst_question_noun=time
p1208
I1759
sVfirst_noun=maximum
p1209
I882
sVfirst_noun=police
p1210
I1095
sVfirst_noun=medium
p1211
I890
sS'first_word_type=WP'
p1212
I1851
sVfirst_noun=didn
p1213
I433
sVfirst_noun=smoking
p1214
I1334
sVfirst_noun=fan
p1215
I538
sVfirst_noun=root
p1216
I1249
sVfirst_noun=fax
p1217
I549
sVfirst_noun=room
p1218
I1248
sVfirst_noun=pursuit
p1219
I1166
sVfirst_noun=birthstone
p1220
I135
sVfirst_noun=lot
p1221
I847
sVfirst_noun=preference
p1222
I1118
sVfirst_noun=avenue
p1223
I86
sVfirst_noun=fathom
p1224
I548
sVfirst_noun=drought
p1225
I474
sVfirst_noun=profession
p1226
I1141
sVfirst_noun=period
p1227
I1051
sVfirst_noun=object
p1228
I988
sVfirst_noun=conductor
p1229
I327
sVfirst_noun=subject
p1230
I1415
sVfirst_noun=advertise
p1231
I21
sVfirst_noun=artist
p1232
I70
sVfirst_noun=smile
p1233
I1333
sVfirst_noun=flight
p1234
I576
sVfirst_noun=rank
p1235
I1192
sVfirst_noun=breed
p1236
I179
sVfirst_noun=damage
p1237
I393
sVfirst_noun=counterpart
p1238
I355
sVfirst_noun=circumnavigator
p1239
I267
sVfirst_noun=salary
p1240
I1258
sVfirst_noun=urologist
p1241
I1565
sVfirst_noun=level
p1242
I822
sVfirst_noun=county
p1243
I357
sVfirst_noun=football
p1244
I593
sVfirst_noun=pugilist
p1245
I1162
sVfirst_noun=coin
p1246
I293
sS'first_word_type=JJ'
p1247
I1843
sVfirst_noun=eidologist
p1248
I487
sVfirst_noun=date
p1249
I399
sVfirst_noun=alternate
p1250
I40
sVfirst_word_token=by
p1251
I1781
sVfirst_noun=intranet
p1252
I765
sVfirst_noun=advertising
p1253
I22
sVfirst_noun=singing
p1254
I1321
sVfirst_noun=point
p1255
I1092
sVfirst_noun=snowboarding
p1256
I1340
sVfirst_noun=plantar
p1257
I1082
sVfirst_noun=breakfast
p1258
I177
sVfirst_noun=pool
p1259
I1104
sVfirst_noun=dirter
p1260
I443
sVfirst_noun=newscast
p1261
I964
sVfirst_noun=stick
p1262
I1395
sVfirst_noun=hamlet
p1263
I669
sVfirst_noun=penalty
p1264
I1043
sVfirst_noun=spend
p1265
I1369
sVfirst_noun=grandma
p1266
I652
sVfirst_noun=found
p1267
I598
sVfirst_noun=coach
p1268
I286
sVfirst_noun=midi
p1269
I908
sVfirst_noun=command
p1270
I306
sVfirst_noun=spouting
p1271
I1377
sVfirst_noun=dancing
p1272
I395
sVfirst_noun=kennedy-nixon
p1273
I788
sVfirst_noun=circumcision
p1274
I266
sVfirst_noun=pecan
p1275
I1041
sVfirst_noun=menstruation
p1276
I899
sVfirst_noun=concentration
p1277
I323
sVfirst_noun=trade
p1278
I1524
sVfirst_noun=suspect
p1279
I1441
sVfirst_question_noun=city
p1280
I1679
sVfirst_noun=came
p1281
I212
sVfirst_noun=price
p1282
I1129
sVfirst_noun=rice
p1283
I1237
sVfirst_noun=math
p1284
I881
sVfirst_noun=treat
p1285
I1535
sVfirst_noun=refuge
p1286
I1210
sVfirst_noun=spacecraft
p1287
I1361
sVfirst_noun=whale
p1288
I1622
sVfirst_question_noun=income
p1289
I1705
sVfirst_noun=maintain
p1290
I859
sVfirst_noun=peninsula
p1291
I1044
sVfirst_noun=rhomboideus
p1292
I1235
sVfirst_noun=sense
p1293
I1292
sVfirst_noun=inhabit
p1294
I752
sVfirst_noun=ailment
p1295
I29
sVfirst_noun=barbershop
p1296
I100
sVfirst_noun=oatmeal
p1297
I986
sVfirst_noun=life
p1298
I825
sVfirst_noun=birthplace
p1299
I134
sVfirst_noun=piano
p1300
I1066
sVfirst_noun=classification
p1301
I275
sVfirst_noun=twenty
p1302
I1553
sVfirst_noun=fare
p1303
I540
sVfirst_noun=example
p1304
I520
sVfirst_noun=farm
p1305
I541
sVfirst_noun=dialing
p1306
I426
sVfirst_noun=mutiny
p1307
I947
sVfirst_noun=cotton
p1308
I353
sVfirst_word_token=colin
p1309
I1784
sVfirst_noun=butter
p1310
I200
sVfirst_noun=mission
p1311
I917
sVfirst_word_token=have
p1312
I1797
sVfirst_noun=clitoris
p1313
I280
sVfirst_word_token=when
p1314
I1830
sVfirst_noun=check
p1315
I252
sVfirst_word_token=hitler
p1316
I1799
sVfirst_noun=population
p1317
I1107
sVfirst_noun=molybdenum
p1318
I923
sVfirst_noun=quart
p1319
I1173
sVfirst_noun=tape
p1320
I1461
sVfirst_noun=mixing
p1321
I919
sVfirst_noun=radiation
p1322
I1183
sVfirst_noun=athlete
p1323
I76
sVfirst_noun=music
p1324
I945
sVfirst_noun=winter
p1325
I1636
sVfirst_noun=rathaus
p1326
I1194
sVfirst_noun=organ
p1327
I1007
sVfirst_noun=vapor
p1328
I1570
sVfirst_noun=suit
p1329
I1425
sVfirst_noun=protagonist
p1330
I1152
sVfirst_noun=injection
p1331
I753
sVfirst_noun=specimen
p1332
I1365
sVfirst_noun=surface
p1333
I1434
sVfirst_noun=horse
p1334
I711
sVfirst_question_noun=sport
p1335
I1750
sVfirst_noun=primate
p1336
I1130
sVfirst_noun=bull
p1337
I194
sVfirst_noun=son-in-law
p1338
I1353
sVfirst_noun=longest
p1339
I843
sVfirst_noun=requirement
p1340
I1221
sVfirst_noun=broccoli
p1341
I184
sVfirst_noun=substance
p1342
I1417
sVfirst_noun=breeding
p1343
I180
sVfirst_noun=position
p1344
I1109
sVfirst_noun=gram
p1345
I650
sVfirst_noun=trick
p1346
I1541
sVfirst_noun=wedding
p1347
I1615
sVfirst_noun=scalene
p1348
I1267
sVfirst_noun=hymn
p1349
I732
sVfirst_noun=executioner
p1350
I523
sVfirst_noun=proposition
p1351
I1151
sVfirst_noun=pro
p1352
I1134
sVfirst_noun=partner
p1353
I1033
sVfirst_noun=puppy
p1354
I1163
sVfirst_noun=marry
p1355
I873
sVfirst_noun=orca
p1356
I1005
sVfirst_noun=mother
p1357
I932
sVfirst_noun=bocci
p1358
I146
sVfirst_noun=mean
p1359
I886
sVfirst_noun=premier
p1360
I1121
sVfirst_noun=wop
p1361
I1642
sVfirst_noun=meat
p1362
I888
sVfirst_noun=arch
p1363
I64
sVfirst_noun=verdandi
p1364
I1573
sVfirst_question_noun=usage
p1365
I1762
sVfirst_noun=pony
p1366
I1102
sVfirst_noun=bombing
p1367
I151
sVfirst_noun=bloodhound
p1368
I142
sVfirst_noun=magazine
p1369
I857
sVfirst_noun=bill
p1370
I127
sVfirst_noun=sister
p1371
I1323
sVfirst_noun=border
p1372
I157
sVfirst_noun=lemon
p1373
I816
sVfirst_noun=modem
p1374
I921
sVfirst_noun=model
p1375
I920
sVfirst_noun=humidity
p1376
I722
sVfirst_noun=lustrum
p1377
I852
sVfirst_noun=killer
p1378
I794
sVfirst_noun=stardom
p1379
I1387
sVfirst_noun=curl
p1380
I386
sVfirst_noun=talking
p1381
I1459
sVfirst_noun=tongue
p1382
I1512
sVfirst_noun=cousin
p1383
I361
sVfirst_noun=race
p1384
I1181
sVfirst_question_noun=day
p1385
I1689
sVfirst_question_noun=job
p1386
I1709
sVfirst_noun=war
p1387
I1601
sVfirst_noun=teaspoon
p1388
I1470
sVfirst_noun=folk
p1389
I587
sVfirst_noun=way
p1390
I1610
sVfirst_noun=extant
p1391
I530
sVfirst_noun=planet
p1392
I1079
sVfirst_noun=threat
p1393
I1498
sVfirst_noun=code
p1394
I291
sVfirst_noun=account
p1395
I8
sVfirst_noun=ruin
p1396
I1255
sS'first_word_type=IN'
p1397
I1842
sVfirst_noun=gender
p1398
I628
sVfirst_noun=ante
p1399
I51
sVfirst_noun=bow
p1400
I167
sVfirst_noun=indoor
p1401
I749
sVfirst_noun=spoke
p1402
I1375
sVfirst_noun=yougurt
p1403
I1660
sVfirst_noun=silk
p1404
I1318
sVfirst_noun=body
p1405
I147
sVfirst_question_noun=beer
p1406
I1672
sVfirst_noun=lyricist
p1407
I853
sVfirst_noun=product
p1408
I1140
sVfirst_noun=boy
p1409
I171
sVfirst_noun=liberty
p1410
I823
sVfirst_noun=donation
p1411
I464
sVfirst_noun=revolution
p1412
I1234
sVfirst_noun=bird
p1413
I131
sVfirst_noun=son
p1414
I1352
sVfirst_noun=building
p1415
I192
sVfirst_noun=length
p1416
I817
sVfirst_noun=nationality
p1417
I956
sVfirst_noun=state
p1418
I1389
sVfirst_noun=scratch
p1419
I1272
sVfirst_noun=calculator
p1420
I208
sVfirst_noun=title
p1421
I1506
sVfirst_noun=flower
p1422
I582
sVfirst_noun=tiger
p1423
I1503
sVfirst_noun=task
p1424
I1464
sVfirst_noun=composition
p1425
I321
sVfirst_noun=calcium
p1426
I207
sVfirst_noun=resistance
p1427
I1225
sVfirst_noun=thing
p1428
I1496
sVfirst_noun=setting
p1429
I1299
sVfirst_noun=think
p1430
I1497
sVfirst_noun=marijuana
p1431
I870
sVfirst_noun=sunlight
p1432
I1429
sVfirst_word_token=with
p1433
I1838
sVfirst_noun=instrument
p1434
I761
sVfirst_noun=phalanx
p1435
I1057
sVfirst_noun=lead
p1436
I812
sVfirst_noun=redness
p1437
I1206
sVfirst_noun=sleepover
p1438
I1330
sVfirst_noun=scoundrel
p1439
I1271
sVfirst_noun=tournament
p1440
I1521
sVfirst_word_token=give
p1441
I1795
sVfirst_noun=clitoridectomy
p1442
I279
sVfirst_noun=feet
p1443
I555
sVfirst_question_noun=company
p1444
I1680
sVfirst_noun=scale
p1445
I1266
sVfirst_noun=splatterpunk
p1446
I1374
sVfirst_noun=deck
p1447
I407
sVfirst_noun=declaration
p1448
I408
sVfirst_noun=millionaire
p1449
I913
sVfirst_word_token=about
p1450
I1775
sVfirst_noun=swimmer
p1451
I1446
sVfirst_noun=design
p1452
I421
sVfirst_noun=cosmology
p1453
I350
sVfirst_noun=sang
p1454
I1262
sVfirst_noun=diary
p1455
I429
sVfirst_noun=monarch
p1456
I925
sVfirst_noun=sank
p1457
I1263
sVfirst_noun=tribe
p1458
I1540
sVfirst_noun=clay
p1459
I277
sVfirst_noun=acreage
p1460
I11
sVfirst_noun=z
p1461
I1661
sVfirst_noun=king
p1462
I798
sVfirst_noun=kind
p1463
I797
sVfirst_noun=vitamin
p1464
I1590
sVfirst_noun=album
p1465
I35
sVfirst_question_noun=name
p1466
I1721
sVfirst_noun=web
p1467
I1613
sVfirst_noun=individual
p1468
I748
sVfirst_noun=subway
p1469
I1419
sVfirst_noun=ceremony
p1470
I240
sVfirst_noun=strait
p1471
I1402
sVfirst_noun=empty
p1472
I500
sVfirst_noun=paracetamol
p1473
I1029
sVfirst_noun=playing
p1474
I1086
sVfirst_noun=function
p1475
I616
sVfirst_question_noun=percentage
p1476
I1729
sVfirst_noun=lake
p1477
I803
sVfirst_noun=pregnacy
p1478
I1120
sVfirst_noun=tide
p1479
I1501
sVfirst_noun=currency
p1480
I387
sVfirst_noun=shouldn
p1481
I1312
sVfirst_noun=supercontinent
p1482
I1430
sVfirst_question_noun=country
p1483
I1684
sVfirst_noun=fiction
p1484
I558
sVfirst_noun=piece
p1485
I1068
sVfirst_noun=translation
p1486
I1532
sVfirst_noun=approval
p1487
I61
sVfirst_noun=bounty
p1488
I164
sVfirst_noun=skipping
p1489
I1327
sVfirst_question_noun=game
p1490
I1700
sVfirst_noun=foot
p1491
I592
sVfirst_noun=hospital
p1492
I713
sVfirst_noun=fool
p1493
I591
sVfirst_noun=outline
p1494
I1014
sVfirst_noun=food
p1495
I590
sVfirst_noun=quantity
p1496
I1172
sVfirst_noun=watch
p1497
I1606
sVfirst_noun=crabgrass
p1498
I364
sVfirst_noun=plant
p1499
I1081
sVfirst_noun=hunting
p1500
I725
sVfirst_noun=plank
p1501
I1080
sVfirst_noun=percentage
p1502
I1047
sVfirst_question_noun=formation
p1503
I1699
sVfirst_noun=disaster
p1504
I445
sVfirst_noun=car
p1505
I223
sVfirst_noun=cat
p1506
I230
sVfirst_word_token=musician
p1507
I1812
sVfirst_question_noun=information
p1508
I1706
sVfirst_noun=today
p1509
I1507
sVfirst_noun=practice
p1510
I1115
sVfirst_noun=softball
p1511
I1345
sVfirst_noun=hematoma
p1512
I689
sVfirst_noun=time
p1513
I1504
sVfirst_word_token=do
p1514
I1790
sVfirst_noun=decision
p1515
I406
sVfirst_noun=seawater
p1516
I1284
sVfirst_noun=tonne
p1517
I1513
sVfirst_question_noun=university
p1518
I1761
sVfirst_noun=theme
p1519
I1492
sVfirst_question_noun=telephone
p1520
I1756
sVfirst_noun=buggy
p1521
I190
sVfirst_word_token=saddam
p1522
I1820
sVfirst_noun=finger
p1523
I566
sVfirst_noun=blob
p1524
I139
sVfirst_noun=outcome
p1525
I1013
sVfirst_question_noun=seashell
p1526
I1744
sVfirst_noun=corgi
p1527
I345
sVfirst_noun=religion
p1528
I1216
sVfirst_noun=cd
p1529
I234
sVfirst_noun=myth
p1530
I949
sVfirst_noun=love
p1531
I849
sVfirst_noun=fascist
p1532
I543
sVfirst_noun=litmus
p1533
I833
sVfirst_noun=stratocaster
p1534
I1403
sVfirst_noun=government
p1535
I647
sVfirst_noun=live
p1536
I834
sVfirst_noun=flip
p1537
I577
sVfirst_question_noun=age
p1538
I1667
sVfirst_noun=cricketer
p1539
I373
sVfirst_noun=captain
p1540
I222
sVfirst_noun=debt
p1541
I404
sVfirst_noun=plea
p1542
I1088
sVfirst_noun=midday
p1543
I906
sVfirst_noun=napsylate
p1544
I954
sVfirst_noun=phobophobe
p1545
I1061
sVfirst_noun=chess
p1546
I254
sVfirst_noun=maneuver
p1547
I865
sVfirst_noun=foreigner
p1548
I594
sVfirst_noun=cake
p1549
I206
sVfirst_word_token=independent
p1550
I1803
sVfirst_noun=gate
p1551
I625
sVfirst_noun=actress
p1552
I15
sVfirst_noun=hiccup
p1553
I695
sVfirst_word_token=cnn
p1554
I1783
sVfirst_noun=information
p1555
I750
sVfirst_noun=end
p1556
I502
sVfirst_noun=puddle
p1557
I1161
sVfirst_noun=shelf
p1558
I1305
sVfirst_noun=door-to-door
p1559
I467
sVfirst_noun=perform
p1560
I1049
sVfirst_noun=center
p1561
I237
sS'first_word_type=WDT'
p1562
I1850
sVfirst_word_token=were
p1563
I1828
sVfirst_noun=possession
p1564
I1110
sVfirst_noun=league
p1565
I814
sVfirst_question_noun=prefix
p1566
I1733
sVfirst_word_token=silly
p1567
I1823
sVfirst_noun=party
p1568
I1034
sVfirst_noun=deltiologist
p1569
I417
sVfirst_noun=leg
p1570
I815
sVfirst_noun=phrase
p1571
I1065
sVfirst_noun=temperature
p1572
I1480
sVfirst_noun=steel
p1573
I1392
sVfirst_noun=museum
p1574
I944
sVfirst_noun=plane
p1575
I1078
sVfirst_noun=respirator
p1576
I1227
sVfirst_noun=equivalent
p1577
I512
sVfirst_noun=mythology
p1578
I950
sVfirst_noun=shiny
p1579
I1306
sVfirst_noun=fire
p1580
I567
sVfirst_noun=handle
p1581
I672
sVfirst_noun=heat
p1582
I684
sVfirst_noun=immigration
p1583
I739
sVfirst_noun=tourist
p1584
I1520
sVfirst_noun=electricity
p1585
I490
sVfirst_question_noun=car
p1586
I1677
sVfirst_noun=business
p1587
I198
sVfirst_noun=brass
p1588
I175
sVfirst_noun=referring
p1589
I1208
sVfirst_noun=proof
p1590
I1148
sVfirst_noun=cyclist
p1591
I390
sVfirst_noun=toddler
p1592
I1508
sVfirst_noun=school
p1593
I1268
sVfirst_noun=move
p1594
I939
sVfirst_noun=universe
p1595
I1562
sVfirst_noun=money
p1596
I926
sVfirst_noun=borrower
p1597
I160
sVfirst_question_noun=mouse
p1598
I1718
sVfirst_noun=golf
p1599
I645
sVfirst_noun=gold
p1600
I644
sVfirst_noun=network
p1601
I962
sVfirst_noun=host
p1602
I714
sVfirst_noun=strawberry
p1603
I1404
sVfirst_noun=nickel-cadmium
p1604
I967
sVfirst_noun=putty
p1605
I1169
sVfirst_noun=service
p1606
I1298
sVfirst_noun=instructor
p1607
I760
sVfirst_noun=video
p1608
I1581
sVfirst_noun=guitar
p1609
I658
sVfirst_noun=banking
p1610
I98
sVfirst_noun=camel
p1611
I213
sVfirst_noun=mascot
p1612
I876
sVfirst_noun=championship
p1613
I245
sVfirst_noun=ferret
p1614
I557
sVfirst_noun=flush
p1615
I584
sVfirst_noun=trial
p1616
I1539
sVfirst_noun=wingspan
p1617
I1634
sVfirst_noun=four-player
p1618
I602
sVfirst_noun=grow
p1619
I656
sVfirst_word_token=dialing
p1620
I1788
sVfirst_word_token=which
p1621
I1832
sVfirst_word_token=cpr
p1622
I1785
sVfirst_noun=lesson
p1623
I820
sVfirst_noun=bovine
p1624
I166
sVfirst_noun=access
p1625
I5
sVfirst_noun=breath
p1626
I178
sVfirst_noun=area
p1627
I67
sVfirst_noun=polo
p1628
I1099
sVfirst_noun=poll
p1629
I1098
sVfirst_noun=bat
p1630
I104
sVfirst_noun=waste
p1631
I1605
sVfirst_question_noun=player
p1632
I1732
sVfirst_noun=mayonnaise
p1633
I884
sVfirst_noun=actor
p1634
I14
sVfirst_noun=creator
p1635
I369
sVfirst_noun=career
p1636
I226
sVfirst_noun=pitcher
p1637
I1074
sVfirst_noun=software
p1638
I1347
sVfirst_noun=black
p1639
I136
sS'first_word_type=MD'
p1640
I1844
sVfirst_noun=sleep
p1641
I1329
sVfirst_noun=constellation
p1642
I335
sVfirst_noun=boxer
p1643
I170
sVfirst_noun=mendelevium
p1644
I898
sVfirst_noun=eczema
p1645
I484
sVfirst_noun=motto
p1646
I935
sVfirst_question_noun=moon
p1647
I1717
sVfirst_noun=tablespoon
p1648
I1455
sVfirst_noun=dipsomaniac
p1649
I439
sVfirst_noun=find
p1650
I564
sVfirst_noun=fine
p1651
I565
sVfirst_noun=succotash
p1652
I1421
sVfirst_noun=multiplexer
p1653
I941
sVfirst_noun=speaking
p1654
I1364
sVfirst_noun=voyage
p1655
I1595
sVfirst_noun=cell
p1656
I236
sVfirst_noun=inspiration
p1657
I759
sVfirst_noun=massage
p1658
I878
sVfirst_noun=protection
p1659
I1153
sVfirst_noun=horsepower
p1660
I712
sVfirst_noun=child
p1661
I257
sVfirst_question_noun=part
p1662
I1728
sVfirst_noun=resource
p1663
I1226
sVfirst_noun=hang
p1664
I674
sVfirst_noun=hand
p1665
I670
sVfirst_noun=troilism
p1666
I1544
sVfirst_noun=rainbow
p1667
I1189
sVfirst_noun=connection
p1668
I331
sVfirst_word_token=describe
p1669
I1787
sVfirst_noun=heptagon
p1670
I691
sVfirst_noun=section
p1671
I1288
sVfirst_noun=popcorn
p1672
I1106
sVfirst_noun=spider
p1673
I1373
sVfirst_noun=novelist
p1674
I980
sVfirst_noun=floor
p1675
I580
sVfirst_noun=dose
p1676
I468
sVfirst_noun=email
p1677
I493
sVfirst_noun=flood
p1678
I579
sVfirst_noun=serigraph
p1679
I1297
sVfirst_question_noun=restaurant
p1680
I1740
sVfirst_noun=limelight
p1681
I826
sVfirst_noun=supreme
p1682
I1433
sVfirst_noun=oil
p1683
I995
sVfirst_noun=ask
p1684
I72
sVfirst_noun=hen
p1685
I690
sVfirst_noun=haboob
p1686
I664
sVfirst_noun=shipyard
p1687
I1308
sVfirst_noun=meaning
p1688
I887
sVfirst_noun=cologne
p1689
I297
sVfirst_noun=message
p1690
I901
sVfirst_noun=house
p1691
I718
sVfirst_noun=support
p1692
I1432
sVfirst_noun=zodiac
p1693
I1664
sVfirst_noun=battleship
p1694
I106
sVfirst_question_noun=book
p1695
I1674
sVfirst_noun=pound
p1696
I1112
sVfirst_noun=urban
p1697
I1564
sVfirst_noun=teen
p1698
I1473
sVfirst_noun=chairbound
p1699
I243
sVfirst_noun=holiday
p1700
I703
sVfirst_noun=acceptance
p1701
I4
sVfirst_noun=idealab
p1702
I736
sVfirst_noun=fountain
p1703
I601
sVfirst_noun=go
p1704
I642
sVfirst_noun=snake
p1705
I1336
sVfirst_noun=head
p1706
I680
sVfirst_noun=literature
p1707
I832
sVfirst_noun=citizen
p1708
I269
sVfirst_noun=wander
p1709
I1599
sVfirst_noun=condiment
p1710
I325
sVfirst_noun=hero
p1711
I693
sVfirst_noun=civil
p1712
I271
sVfirst_word_token=boxing
p1713
I1780
sVfirst_noun=cream
p1714
I368
sVfirst_noun=salt
p1715
I1260
sVfirst_noun=visit
p1716
I1589
sVfirst_noun=gain
p1717
I617
sVfirst_noun=seccession
p1718
I1285
sVfirst_noun=known
p1719
I799
sVfirst_noun=voice
p1720
I1592
sVfirst_noun=kill
p1721
I793
sVfirst_question_noun=temperature
p1722
I1757
sVfirst_noun=expression
p1723
I529
sVfirst_noun=environment
p1724
I508
sVfirst_noun=week
p1725
I1616
sVfirst_noun=somebody
p1726
I1349
sVfirst_noun=bought
p1727
I163
sVfirst_noun=headquarters
p1728
I681
sVfirst_noun=swastika
p1729
I1443
sVfirst_noun=interview
p1730
I764
sVfirst_noun=name
p1731
I952
sVfirst_noun=image
p1732
I738
sVfirst_noun=endurance
p1733
I503
sVfirst_noun=acid
p1734
I10
sVfirst_noun=garment
p1735
I623
sVfirst_noun=drug
p1736
I475
sVfirst_noun=tofu
p1737
I1509
sVfirst_noun=degree
p1738
I413
sVfirst_noun=cartoon
p1739
I227
sVfirst_noun=log
p1740
I840
sVfirst_noun=pauper
p1741
I1038
sVfirst_noun=begin
p1742
I115
sVfirst_noun=theory
p1743
I1493
sVfirst_noun=rallying
p1744
I1190
sVfirst_noun=engineer
p1745
I506
sVfirst_noun=governor
p1746
I648
sVfirst_noun=masquerade
p1747
I877
sVfirst_noun=opera
p1748
I1000
sVfirst_noun=anything
p1749
I56
sVfirst_noun=virus
p1750
I1587
sVfirst_question_noun=teaspoon
p1751
I1755
sVfirst_noun=commit
p1752
I310
sVfirst_noun=street
p1753
I1405
sVfirst_noun=tail
p1754
I1456
sVfirst_noun=residence
p1755
I1223
sVfirst_noun=crust
p1756
I382
sVfirst_noun=flora
p1757
I581
sVfirst_word_token=mccarren
p1758
I1810
sVfirst_noun=round
p1759
I1251
sVfirst_noun=bedroom
p1760
I111
sVfirst_noun=spice
p1761
I1372
sVfirst_noun=opposition
p1762
I1003
sVfirst_noun=nursery
p1763
I984
sVfirst_noun=television
p1764
I1478
sVfirst_noun=bog
p1765
I148
sVfirst_question_noun=house
p1766
I1704
sVfirst_noun=coup
p1767
I358
sVfirst_noun=comedienne
p1768
I305
sVfirst_question_noun=yesterday
p1769
I1767
sVfirst_noun=leper
p1770
I819
sVfirst_question_noun=state
p1771
I1752
sVfirst_noun=picture
p1772
I1067
sVfirst_noun=box
p1773
I169
sVfirst_noun=vice
p1774
I1577
sVfirst_noun=condition
p1775
I326
sVfirst_noun=camera
p1776
I214
sVfirst_noun=dysostosis
p1777
I479
sVfirst_noun=loco-motion
p1778
I839
sVfirst_noun=clown
p1779
I284
sVfirst_noun=lottery
p1780
I848
sVfirst_question_noun=holiday
p1781
I1703
sVfirst_question_noun=question
p1782
I1735
sVfirst_noun=borrow
p1783
I159
sVfirst_noun=assassination
p1784
I73
sVfirst_noun=library
p1785
I824
sVfirst_noun=poodle
p1786
I1103
sVfirst_noun=birthday
p1787
I133
sVfirst_noun=bubblegum
p1788
I187
sVfirst_noun=incident
p1789
I742
sVfirst_noun=master
p1790
I879
sVfirst_noun=flytrap
p1791
I586
sVfirst_noun=seal
p1792
I1278
sVfirst_noun=seventh
p1793
I1300
sVfirst_noun=paper
p1794
I1027
sVfirst_noun=seat
p1795
I1283
sVfirst_noun=having
p1796
I677
sVfirst_noun=feeling
p1797
I554
sVfirst_noun=beer
p1798
I114
sVfirst_noun=soldier
p1799
I1348
sVfirst_noun=rigati
p1800
I1241
sVfirst_noun=cause
p1801
I233
sVfirst_noun=chance
p1802
I246
sVfirst_noun=kidnaping
p1803
I791
sVfirst_noun=beef
p1804
I112
sVfirst_noun=competitor
p1805
I319
sVfirst_noun=honey
p1806
I705
sS'first_word_type=TO'
p1807
I1847
sVfirst_noun=da
p1808
I391
sVfirst_noun=been
p1809
I113
sVfirst_noun=hair
p1810
I665
sVfirst_noun=bag
p1811
I91
sVfirst_noun=agent
p1812
I27
sVfirst_noun=bay
p1813
I107
sVfirst_question_noun=area
p1814
I1668
sVfirst_noun=cutlery
p1815
I389
sVfirst_noun=ship
p1816
I1307
sVfirst_noun=sushi
p1817
I1440
sVfirst_noun=havoc
p1818
I678
sVfirst_noun=department
p1819
I419
sVfirst_noun=bar
p1820
I99
sVfirst_noun=photograph
p1821
I1064
sVfirst_noun=replica
p1822
I1218
sVfirst_word_token=name
p1823
I1813
sVfirst_noun=bandleader
p1824
I96
sVfirst_noun=confession
p1825
I329
sVfirst_question_noun=ripe
p1826
I1741
sVfirst_noun=disease
p1827
I447
sVfirst_noun=husband
p1828
I728
sVfirst_question_noun=baby
p1829
I1670
sVfirst_noun=prankster
p1830
I1116
sVfirst_noun=inside
p1831
I758
sVfirst_noun=espionage
p1832
I515
sVfirst_noun=gliding
p1833
I639
sVfirst_noun=conifer
p1834
I330
sVfirst_word_token=whose
p1835
I1835
sVfirst_noun=anime
p1836
I48
sVfirst_noun=star
p1837
I1386
sVfirst_noun=sport
p1838
I1376
sVfirst_noun=peak
p1839
I1039
sVfirst_noun=purchase
p1840
I1164
sVfirst_noun=probability
p1841
I1135
sVfirst_noun=flavor
p1842
I574
sVfirst_noun=dangling
p1843
I396
sVfirst_noun=nuclear
p1844
I981
sVfirst_word_token=madonna
p1845
I1809
sVfirst_noun=number
p1846
I982
sVfirst_noun=art
p1847
I69
sVfirst_noun=assent
p1848
I74
sVfirst_noun=home
p1849
I704
sVfirst_noun=founder
p1850
I599
sVfirst_word_token=aspartame
p1851
I1778
sVfirst_noun=numeral
p1852
I983
sVfirst_word_token=what
p1853
I1829
sVfirst_noun=meeting
p1854
I892
sVfirst_noun=aging
p1855
I28
sVfirst_noun=background
p1856
I89
sVfirst_question_noun=become
p1857
I1671
sVfirst_question_noun=stick
p1858
I1753
sVfirst_noun=prime
p1859
I1131
sVfirst_noun=fast-food
p1860
I545
sVfirst_noun=spy
p1861
I1381
ssS'dtype'
p1862
cnumpy
float64
p1863
sS'feature_names_'
p1864
(lp1865
g246
ag911
ag677
ag353
ag1701
ag1625
ag41
ag138
ag1395
ag836
ag1734
ag1460
ag234
ag775
ag1634
ag1552
ag1160
ag1127
ag1079
ag134
ag440
ag1231
ag1253
ag502
ag1164
ag124
ag230
ag1812
ag1855
ag1295
ag156
ag990
ag1011
ag367
ag1081
ag1465
ag522
ag976
ag150
ag225
ag1250
ag570
ag9
ag766
ag601
ag736
ag251
ag300
ag1836
ag376
ag218
ag1399
ag704
ag315
ag1054
ag476
ag1749
ag512
ag618
ag298
ag859
ag1487
ag863
ag1097
ag1363
ag10
ag772
ag1627
ag849
ag1847
ag1232
ag378
ag1684
ag1784
ag1848
ag824
ag1323
ag817
ag1128
ag770
ag153
ag1145
ag816
ag270
ag579
ag518
ag1223
ag951
ag790
ag1856
ag852
ag1811
ag469
ag908
ag664
ag659
ag1824
ag194
ag1610
ag1820
ag1296
ag232
ag663
ag867
ag1630
ag394
ag1694
ag1813
ag710
ag460
ag235
ag1760
ag1804
ag1809
ag1798
ag1742
ag534
ag917
ag919
ag1014
ag435
ag474
ag1102
ag1052
ag994
ag788
ag984
ag1370
ag39
ag946
ag283
ag1413
ag184
ag1787
ag1299
ag1220
ag1639
ag391
ag778
ag1524
ag697
ag366
ag1368
ag450
ag423
ag737
ag1358
ag1405
ag1765
ag346
ag191
ag1367
ag630
ag631
ag456
ag452
ag453
ag1372
ag550
ag1783
ag1597
ag439
ag802
ag1727
ag1488
ag661
ag1624
ag1400
ag1107
ag1773
ag1643
ag1409
ag223
ag497
ag136
ag1588
ag732
ag1258
ag1626
ag1236
ag1343
ag181
ag606
ag965
ag1341
ag596
ag953
ag1788
ag189
ag714
ag1521
ag582
ag1415
ag575
ag1337
ag741
ag554
ag709
ag1587
ag131
ag1310
ag354
ag660
ag995
ag112
ag11
ag1549
ag1426
ag1420
ag93
ag233
ag1132
ag1281
ag1611
ag1776
ag547
ag180
ag276
ag871
ag340
ag764
ag977
ag1540
ag1505
ag577
ag576
ag1636
ag1739
ag749
ag751
ag1506
ag257
ag477
ag1801
ag1529
ag306
ag1656
ag1561
ag566
ag149
ag1470
ag828
ag831
ag1699
ag1077
ag1613
ag1802
ag370
ag459
ag515
ag1008
ag834
ag1315
ag716
ag1546
ag735
ag179
ag1661
ag119
ag604
ag1183
ag61
ag1204
ag1105
ag945
ag177
ag1274
ag1239
ag1179
ag1708
ag555
ag1712
ag329
ag964
ag392
ag1301
ag1182
ag1459
ag481
ag1442
ag1313
ag211
ag587
ag117
ag1779
ag1147
ag1268
ag760
ag1180
ag645
ag633
ag1394
ag253
ag1246
ag310
ag429
ag108
ag1689
ag479
ag1049
ag573
ag580
ag416
ag747
ag1200
ag1768
ag1270
ag692
ag129
ag302
ag1752
ag527
ag284
ag447
ag974
ag49
ag569
ag691
ag167
ag1805
ag400
ag1425
ag883
ag1277
ag611
ag1710
ag1775
ag1229
ag23
ag1825
ag1834
ag1668
ag1166
ag1059
ag1156
ag1642
ag603
ag583
ag214
ag876
ag891
ag924
ag875
ag938
ag468
ag1527
ag593
ag295
ag687
ag1068
ag1453
ag708
ag628
ag1308
ag280
ag1238
ag304
ag1243
ag1767
ag929
ag342
ag1383
ag420
ag792
ag1498
ag1126
ag513
ag281
ag1714
ag1635
ag308
ag203
ag239
ag1539
ag625
ag1071
ag451
ag271
ag612
ag844
ag1023
ag499
ag1756
ag84
ag565
ag482
ag1380
ag1480
ag358
ag1815
ag1591
ag1808
ag71
ag1237
ag1025
ag1272
ag1843
ag1026
ag690
ag1249
ag240
ag935
ag415
ag646
ag1541
ag238
ag1515
ag1447
ag1448
ag890
ag675
ag702
ag1171
ag1738
ag322
ag18
ag1199
ag1569
ag1161
ag1819
ag541
ag1452
ag739
ag1041
ag532
ag1143
ag1306
ag1195
ag553
ag1455
ag847
ag1063
ag121
ag1213
ag120
ag227
ag293
ag1113
ag557
ag1649
ag192
ag1032
ag537
ag1260
ag1108
ag1504
ag640
ag1827
ag635
ag67
ag133
ag299
ag983
ag237
ag212
ag106
ag455
ag79
ag949
ag361
ag668
ag531
ag723
ag24
ag1411
ag722
ag560
ag1559
ag1676
ag357
ag466
ag373
ag658
ag205
ag1225
ag1736
ag857
ag105
ag1119
ag1777
ag1086
ag717
ag622
ag183
ag1645
ag970
ag208
ag1248
ag87
ag89
ag1585
ag1122
ag1080
ag1677
ag634
ag142
ag657
ag815
ag726
ag870
ag1472
ag1186
ag1556
ag1733
ag97
ag1196
ag1745
ag1047
ag1724
ag787
ag720
ag848
ag1577
ag1040
ag462
ag1832
ag1035
ag494
ag535
ag34
ag1304
ag636
ag950
ag1350
ag1162
ag738
ag408
ag830
ag380
ag1723
ag1391
ag925
ag418
ag600
ag77
ag1004
ag16
ag1062
ag1215
ag15
ag1303
ag1305
ag1084
ag1532
ag1201
ag1860
ag506
ag436
ag1224
ag1217
ag920
ag921
ag438
ag496
ag1797
ag1443
ag231
ag1614
ag1484
ag72
ag897
ag51
ag1029
ag53
ag1650
ag1651
ag1523
ag1580
ag341
ag997
ag176
ag20
ag301
ag500
ag1842
ag1010
ag1234
ag1537
ag454
ag1678
ag1675
ag1757
ag1422
ag207
ag1615
ag1039
ag1791
ag1389
ag326
ag1099
ag1495
ag1493
ag1491
ag1244
ag1548
ag529
ag644
ag1111
ag1267
ag1850
ag779
ag1703
ag1618
ag952
ag1051
ag62
ag971
ag543
ag798
ag81
ag472
ag592
ag498
ag907
ag679
ag926
ag1475
ag1717
ag309
ag379
ag978
ag1056
ag154
ag1735
ag903
ag1551
ag904
ag139
ag1398
ag797
ag813
ag511
ag493
ag368
ag877
ag523
ag220
ag648
ag993
ag1833
ag718
ag155
ag1704
ag186
ag1600
ag1599
ag947
ag1535
ag1746
ag395
ag1345
ag70
ag1266
ag275
ag940
ag780
ag1619
ag175
ag1609
ag101
ag241
ag613
ag617
ag273
ag1686
ag1810
ag140
ag763
ag1169
ag1263
ag1665
ag226
ag1581
ag99
ag1664
ag700
ag325
ag1796
ag1818
ag999
ag1706
ag1728
ag178
ag332
ag1582
ag728
ag372
ag1042
ag1118
ag1512
ag1685
ag1670
ag433
ag1711
ag1165
ag1553
ag1167
ag979
ag1130
ag46
ag1153
ag1191
ag80
ag1700
ag1849
ag1806
ag467
ag314
ag969
ag132
ag185
ag1334
ag1660
ag1492
ag1602
ag595
ag410
ag517
ag1691
ag524
ag799
ag893
ag1376
ag858
ag1135
ag1500
ag445
ag992
ag1828
ag19
ag172
ag252
ag1349
ag900
ag1187
ag135
ag1702
ag323
ag1732
ag1583
ag571
ag1060
ag1789
ag193
ag1083
ag805
ag713
ag152
ag1468
ag1401
ag1555
ag902
ag1294
ag1331
ag1043
ag918
ag1184
ag826
ag1831
ag1657
ag1607
ag1434
ag581
ag92
ag1730
ag1252
ag209
ag88
ag145
ag407
ag892
ag8
ag1139
ag996
ag48
ag868
ag854
ag864
ag319
ag263
ag752
ag356
ag784
ag317
ag840
ag1103
ag754
ag432
ag1273
ag887
ag1131
ag1803
ag520
ag1721
ag1378
ag377
ag898
ag1463
ag1462
ag1719
ag958
ag954
ag794
ag1477
ag371
ag998
ag1206
ag236
ag680
ag86
ag948
ag869
ag1436
ag95
ag1565
ag1570
ag1373
ag1416
ag229
ag1770
ag1623
ag605
ag1242
ag1410
ag1785
ag1298
ag1681
ag269
ag118
ag909
ag52
ag530
ag1707
ag1533
ag1536
ag338
ag833
ag406
ag170
ag1778
ag1740
ag701
ag1020
ag1339
ag113
ag1093
ag103
ag1221
ag1780
ag1531
ag427
ag38
ag1377
ag1407
ag484
ag327
ag1050
ag1369
ag624
ag1290
ag123
ag759
ag242
ag244
ag324
ag1547
ag348
ag1159
ag83
ag330
ag1431
ag195
ag14
ag1355
ag17
ag1019
ag1612
ag1747
ag1658
ag1790
ag939
ag1284
ag1209
ag922
ag1633
ag546
ag1359
ag1688
ag1362
ag414
ag1211
ag33
ag1854
ag862
ag757
ag443
ag313
ag878
ag1644
ag1276
ag955
ag1690
ag608
ag689
ag333
ag1154
ag1543
ag652
ag1269
ag219
ag216
ag804
ag685
ag1449
ag491
ag699
ag1151
ag1311
ag419
ag1321
ag1375
ag1374
ag678
ag1318
ag895
ag1456
ag1596
ag776
ag558
ag1197
ag665
ag811
ag1357
ag943
ag174
ag1646
ag1124
ag163
ag591
ag1594
ag157
ag1653
ag1018
ag399
ag1574
ag1324
ag912
ag1307
ag294
ag1530
ag1578
ag880
ag1731
ag981
ag1544
ag264
ag1417
ag116
ag756
ag446
ag514
ag320
ag1601
ag473
ag1261
ag504
ag1138
ag1604
ag187
ag461
ag102
ag412
ag286
ag35
ag1027
ag656
ag808
ag985
ag411
ag1155
ag1674
ag1844
ag1846
ag1852
ag1763
ag655
ag1297
ag404
ag1228
ag931
ag1090
ag987
ag161
ag724
ag458
ag1683
ag827
ag277
ag1172
ag1017
ag1748
ag1129
ag1178
ag1762
ag835
ag1356
ag1203
ag1327
ag853
ag282
ag886
ag1061
ag393
ag1525
ag1494
ag850
ag552
ag331
ag882
ag838
ag1176
ag731
ag1207
ag598
ag761
ag141
ag597
ag1794
ag144
ag1473
ag814
ag1104
ag1110
ag1353
ag1568
ag63
ag171
ag182
ag1741
ag1839
ag98
ag1275
ag297
ag1264
ag1291
ag638
ag740
ag1502
ag676
ag1560
ag413
ag1227
ag1190
ag509
ag1091
ag695
ag694
ag1435
ag1012
ag190
ag279
ag1545
ag1064
ag540
ag1821
ag1571
ag1300
ag1772
ag1485
ag1174
ag786
ag614
ag32
ag519
ag1637
ag866
ag1085
ag197
ag1575
ag1392
ag1501
ag1499
ag1257
ag47
ag200
ag1016
ag1474
ag1148
ag1542
ag711
ag712
ag1067
ag1255
ag21
ag58
ag1210
ag66
ag1098
ag1629
ag1628
ag715
ag789
ag1366
ag1786
ag1259
ag386
ag1672
ag1317
ag296
ag1344
ag1564
ag148
ag1696
ag492
ag390
ag1510
ag1830
ag1115
ag1222
ag166
ag1478
ag1360
ag260
ag42
ag956
ag539
ag485
ag1177
ag206
ag1282
ag1336
ag1859
ag1089
ag574
ag1352
ag1841
ag856
ag158
ag351
ag1142
ag1408
ag1226
ag578
ag1001
ag397
ag247
ag248
ag289
ag1590
ag623
ag905
ag1351
ag1330
ag1659
ag733
ag27
ag941
ag610
ag1185
ag1076
ag59
ag1557
ag1245
ag1354
ag1840
ag777
ag1219
ag1021
ag1189
ag1605
ag507
ag483
ag1496
ag1319
ag249
ag316
ag542
ag13
ag12
ag725
ag1038
ag1384
ag1053
ag1322
ag627
ag820
ag818
ag832
ag819
ag1667
ag1744
ag285
ag1235
ag173
ag1326
ag967
ag729
ag1028
ag526
ag748
ag130
ag1205
ag1116
ag305
ag874
ag894
ag1437
ag791
ag1589
ag681
ag1286
ag1121
ag1096
ag1137
ag629
ag243
ag1528
ag1181
ag1822
ag199
ag619
ag1340
ag637
ag1755
ag549
ag1427
ag1663
ag1576
ag568
ag349
ag359
ag812
ag1006
ag809
ag1412
ag1292
ag202
ag1283
ag350
ag94
ag988
ag1800
ag860
ag69
ag548
ag683
ag932
ag1112
ag1218
ag1216
ag107
ag1759
ag561
ag846
ag934
ag1396
ag1013
ag688
ag1240
ag544
ag1715
ag96
ag1454
ag1457
ag57
ag68
ag1445
ag1348
ag1593
ag650
ag806
ag1439
ag1419
ag428
ag829
ag881
ag641
ag421
ag1792
ag639
ag899
ag278
ag465
ag1795
ag1516
ag1718
ag1037
ag753
ag1671
ag475
ag389
ag1078
ag1293
ag287
ag347
ag861
ag91
ag1679
ag1606
ag1429
ag1793
ag642
ag22
ag266
ag268
ag1558
ag1579
ag1816
ag1687
ag755
ag464
ag785
ag1481
ag743
ag162
ag599
ag425
ag396
ag1404
ag254
ag821
ag1254
ag1133
ag1371
ag810
ag43
ag927
ag1489
ag888
ag1641
ag1438
ag122
ag961
ag1233
ag1214
ag674
ag1705
ag1003
ag746
ag706
ag1256
ag972
ag1087
ag36
ag1036
ag1511
ag572
ag1638
ag1799
ag1726
ag719
ag1193
ag1414
ag1338
ag841
ag328
ag168
ag991
ag889
ag1045
ag585
ag1287
ag567
ag662
ag1654
ag1332
ag1075
ag137
ag262
ag1265
ag1022
ag434
ag1761
ag1673
ag1446
ag1402
ag1838
ag1271
ag1163
ag538
ag505
ag1861
ag495
ag100
ag773
ag914
ag1837
ag1379
ag384
ag1418
ag355
ag768
ag1573
ag930
ag28
ag1262
ag224
ag272
ag417
ag767
ag334
ag339
ag1471
ag1534
ag1603
ag1753
ag963
ag1168
ag291
ag307
ag471
ag164
ag845
ag375
ag147
ag1230
ag654
ag1342
ag25
ag1469
ag686
ag1652
ag1173
ag602
ag508
ag1329
ag721
ag336
ag360
ag1432
ag1482
ag1030
ag1692
ag1682
ag1333
ag1033
ag823
ag78
ag653
ag388
ag1817
ag1279
ag589
ag1729
ag374
ag401
ag1451
ag825
ag463
ag1065
ag1188
ag727
ag31
ag1000
ag409
ag1648
ag1754
ag159
ag525
ag1381
ag973
ag1320
ag1140
ag128
ag1424
ag771
ag449
ag222
ag1095
ag337
ag1388
ag1009
ag490
ag1698
ag730
ag962
ag1002
ag1136
ag1764
ag982
ag1572
ag1092
ag1088
ag40
ag801
ag344
ag1055
ag503
ag501
ag29
ag382
ag255
ag1519
ag1743
ag865
ag1158
ag1428
ag1430
ag1393
ag682
ag584
ag1479
ag783
ag1423
ag1513
ag311
ag1421
ag1509
ag1592
ag1737
ag369
ag74
ag1382
ag1517
ag800
ag448
ag221
ag288
ag256
ag201
ag1584
ag1440
ag60
ag75
ag1278
ag564
ag73
ag1031
ag906
ag1044
ag944
ag590
ag1486
ag837
ag245
ag1285
ag1120
ag822
ag1082
ag1616
ag1458
ag1346
ag488
ag385
ag1666
ag55
ag431
ag896
ag937
ag90
ag586
ag643
ag213
ag1302
ag188
ag842
ag1202
ag1192
ag160
ag405
ag335
ag1100
ag1595
ag1114
ag1697
ag1241
ag632
ag762
ag616
ag44
ag1328
ag968
ag933
ag1364
ag556
ag45
ag594
ag1774
ag516
ag703
ag607
ag1608
ag673
ag913
ag765
ag228
ag441
ag1750
ag65
ag1716
ag1464
ag1057
ag1720
ag1024
ag698
ag1655
ag387
ag352
ag980
ag1709
ag734
ag1387
ag261
ag1015
ag615
ag1631
ag1497
ag403
ag1194
ag1175
ag1390
ag551
ag430
ag1467
ag1149
ag1347
ag1725
ag265
ag146
ag684
ag343
ag855
ag1288
ag365
ag651
ag620
ag705
ag1074
ag521
ag318
ag259
ag115
ag1157
ag258
ag1617
ag76
ag1325
ag1101
ag54
ag151
ag781
ag758
ag1361
ag671
ag666
ag966
ag667
ag669
ag986
ag489
ag165
ag707
ag1123
ag303
ag975
ag626
ag839
ag312
ag1069
ag487
ag1403
ag1461
ag1066
ag444
ag1693
ag37
ag210
ag1538
ag1814
ag916
ag1829
ag1857
ag1406
ag510
ag1695
ag796
ag744
ag1586
ag795
ag1280
ag1444
ag1109
ag901
ag959
ag1483
ag793
ag381
ag424
ag1073
ag1385
ag1125
ag562
ag250
ag528
ag647
ag457
ag879
ag696
ag1072
ag1503
ag1490
ag1150
ag110
ag1781
ag1766
ag1289
ag1508
ag85
ag1134
ag1386
ag480
ag960
ag267
ag82
ag807
ag1005
ag1198
ag1647
ag1598
ag1106
ag609
ag1466
ag989
ag217
ag290
ag1058
ag782
ag486
ag1662
ag1476
ag442
ag1152
ag1632
ag1566
ag1046
ag1782
ag928
ag345
ag1007
ag873
ag1680
ag1826
ag1094
ag169
ag1526
ag588
ag398
ag923
ag750
ag742
ag1335
ag56
ag1771
ag1858
ag30
ag1751
ag1520
ag1722
ag292
ag1208
ag50
ag1518
ag1365
ag545
ag672
ag670
ag774
ag1769
ag126
ag851
ag1070
ag559
ag1048
ag621
ag910
ag1450
ag143
ag422
ag1851
ag1146
ag1713
ag1251
ag1170
ag1554
ag1309
ag1622
ag64
ag1669
ag1620
ag649
ag1514
ag533
ag363
ag745
ag215
ag1441
ag437
ag1312
ag426
ag1316
ag402
ag693
ag111
ag1550
ag104
ag1034
ag321
ag114
ag803
ag1845
ag1758
ag274
ag1507
ag1823
ag843
ag884
ag885
ag125
ag536
ag109
ag1522
ag936
ag915
ag1567
ag769
ag942
ag1117
ag127
ag1563
ag1853
ag1314
ag1141
ag1621
ag362
ag26
ag1835
ag364
ag196
ag1433
ag1144
ag563
ag204
ag1397
ag1247
ag1640
ag872
ag198
ag1807
ag478
ag470
ag1562
ag1212
ag957
ag383
asS'separator'
p1866
S'='
p1867
sS'sparse'
p1868
I01
sb.